Archive member included because of file (symbol)

/gpfs/hps/emc/global/noscrub/Boi.Vuong/lib/graphics/v2.0.0/intel/libgph_v2.0.0_8.a(bin2ch.o)
                              fxcompoz.o (bin2ch_)
/gpfs/hps/emc/global/noscrub/Boi.Vuong/lib/graphics/v2.0.0/intel/libgph_v2.0.0_8.a(cdc2asc.o)
                              fxcompoz.o (cdc2asc_)
/gpfs/hps/emc/global/noscrub/Boi.Vuong/lib/graphics/v2.0.0/intel/libgph_v2.0.0_8.a(consol.o)
                              fxcompoz.o (consol_)
/gpfs/hps/emc/global/noscrub/Boi.Vuong/lib/graphics/v2.0.0/intel/libgph_v2.0.0_8.a(xasc2asc.o)
                              fxcompozlib.o (xasc2asc_)
/gpfs/hps/emc/global/noscrub/Boi.Vuong/lib/graphics/v2.0.0/intel/libutil_v2.0.0.a(sbytesccs.o)
                              fxcompozlib.o (sbytesccs_)
/gpfs/hps/emc/global/noscrub/Boi.Vuong/lib/graphics/v2.0.0/intel/libutil_v2.0.0.a(swap_bytes_in_place.o)
                              fxcompoz.o (swap_bytes_in_place_)
/gpfs/hps/nco/ops/nwprod/lib/w3emc/v2.2.0/intel/libw3emc_v2.2.0_8.a(mova2i.o)
                              fxcompozlib.o (mova2i_)
/gpfs/hps/nco/ops/nwprod/lib/w3nco/v2.0.6/intel/libw3nco_v2.0.6_8.a(errexit.o)
                              fxcompoz.o (errexit_)
/gpfs/hps/nco/ops/nwprod/lib/w3nco/v2.0.6/intel/libw3nco_v2.0.6_8.a(gbytes.o)
                              fxcompozlib.o (gbytes_)
/gpfs/hps/nco/ops/nwprod/lib/w3nco/v2.0.6/intel/libw3nco_v2.0.6_8.a(w3as00.o)
                              fxcompozlib.o (w3as00_)
/gpfs/hps/nco/ops/nwprod/lib/w3nco/v2.0.6/intel/libw3nco_v2.0.6_8.a(w3fi01.o)
                              /gpfs/hps/emc/global/noscrub/Boi.Vuong/lib/graphics/v2.0.0/intel/libutil_v2.0.0.a(sbytesccs.o) (w3fi01_)
/gpfs/hps/nco/ops/nwprod/lib/w3nco/v2.0.6/intel/libw3nco_v2.0.6_8.a(w3locdat.o)
                              /gpfs/hps/emc/global/noscrub/Boi.Vuong/lib/graphics/v2.0.0/intel/libgph_v2.0.0_8.a(consol.o) (w3locdat_)
/gpfs/hps/nco/ops/nwprod/lib/w3nco/v2.0.6/intel/libw3nco_v2.0.6_8.a(w3tagb.o)
                              fxcompoz.o (w3tagb_)
/gpfs/hps/nco/ops/nwprod/lib/w3nco/v2.0.6/intel/libw3nco_v2.0.6_8.a(w3utcdat.o)
                              fxcompozlib.o (w3utcdat_)
/gpfs/hps/nco/ops/nwprod/lib/w3nco/v2.0.6/intel/libw3nco_v2.0.6_8.a(xmovex.o)
                              fxcompozlib.o (xmovex_)
/gpfs/hps/nco/ops/nwprod/lib/w3nco/v2.0.6/intel/libw3nco_v2.0.6_8.a(summary.o)
                              /gpfs/hps/nco/ops/nwprod/lib/w3nco/v2.0.6/intel/libw3nco_v2.0.6_8.a(w3tagb.o) (summary_)
/gpfs/hps/nco/ops/nwprod/lib/w3nco/v2.0.6/intel/libw3nco_v2.0.6_8.a(iw3jdn.o)
                              /gpfs/hps/nco/ops/nwprod/lib/w3nco/v2.0.6/intel/libw3nco_v2.0.6_8.a(w3utcdat.o) (iw3jdn_)
/gpfs/hps/nco/ops/nwprod/lib/w3nco/v2.0.6/intel/libw3nco_v2.0.6_8.a(w3doxdat.o)
                              /gpfs/hps/nco/ops/nwprod/lib/w3nco/v2.0.6/intel/libw3nco_v2.0.6_8.a(w3tagb.o) (w3doxdat_)
/gpfs/hps/nco/ops/nwprod/lib/w3nco/v2.0.6/intel/libw3nco_v2.0.6_8.a(w3fs26.o)
                              /gpfs/hps/nco/ops/nwprod/lib/w3nco/v2.0.6/intel/libw3nco_v2.0.6_8.a(w3utcdat.o) (w3fs26_)
/opt/intel/composer_xe_2015.3.187/compiler/lib/intel64/libifport.a(getenv.o)
                              /gpfs/hps/emc/global/noscrub/Boi.Vuong/lib/graphics/v2.0.0/intel/libgph_v2.0.0_8.a(consol.o) (getenv_)
/opt/intel/composer_xe_2015.3.187/compiler/lib/intel64/libifcore.a(for_diags_intel.o)
                              fxcompoz.o (for_emit_diagnostic)
/opt/intel/composer_xe_2015.3.187/compiler/lib/intel64/libifcore.a(for_endfile.o)
                              fxcompoz.o (for_endfile)
/opt/intel/composer_xe_2015.3.187/compiler/lib/intel64/libifcore.a(for_exit.o)
                              /gpfs/hps/nco/ops/nwprod/lib/w3nco/v2.0.6/intel/libw3nco_v2.0.6_8.a(errexit.o) (for_exit)
/opt/intel/composer_xe_2015.3.187/compiler/lib/intel64/libifcore.a(for_exit_handler.o)
                              /opt/intel/composer_xe_2015.3.187/compiler/lib/intel64/libifcore.a(for_diags_intel.o) (for__exit_handler)
/opt/intel/composer_xe_2015.3.187/compiler/lib/intel64/libifcore.a(for_getarg.o)
                              fxcompozlib.o (for_iargc)
/opt/intel/composer_xe_2015.3.187/compiler/lib/intel64/libifcore.a(for_init.o)
                              /opt/intel/composer_xe_2015.3.187/compiler/lib/intel64/libifcore.a(for_diags_intel.o) (for__l_excpt_info)
/opt/intel/composer_xe_2015.3.187/compiler/lib/intel64/libifcore.a(for_io_util.o)
                              /opt/intel/composer_xe_2015.3.187/compiler/lib/intel64/libifcore.a(for_diags_intel.o) (for_check_env_name)
/opt/intel/composer_xe_2015.3.187/compiler/lib/intel64/libifcore.a(for_lub_mgt.o)
                              /opt/intel/composer_xe_2015.3.187/compiler/lib/intel64/libifcore.a(for_diags_intel.o) (for__acquire_lun)
/opt/intel/composer_xe_2015.3.187/compiler/lib/intel64/libifcore.a(for_open.o)
                              fxcompoz.o (for_open)
/opt/intel/composer_xe_2015.3.187/compiler/lib/intel64/libifcore.a(for_preconnected_units_init.o)
                              /opt/intel/composer_xe_2015.3.187/compiler/lib/intel64/libifcore.a(for_init.o) (for__preconnected_units_create)
/opt/intel/composer_xe_2015.3.187/compiler/lib/intel64/libifcore.a(for_put.o)
                              /opt/intel/composer_xe_2015.3.187/compiler/lib/intel64/libifcore.a(for_endfile.o) (for__put_su)
/opt/intel/composer_xe_2015.3.187/compiler/lib/intel64/libifcore.a(for_rdir.o)
                              /gpfs/hps/emc/global/noscrub/Boi.Vuong/lib/graphics/v2.0.0/intel/libgph_v2.0.0_8.a(consol.o) (for_read_dir)
/opt/intel/composer_xe_2015.3.187/compiler/lib/intel64/libifcore.a(for_reentrancy.o)
                              fxcompoz.o (for_set_reentrancy)
/opt/intel/composer_xe_2015.3.187/compiler/lib/intel64/libifcore.a(for_rewind.o)
                              fxcompoz.o (for_rewind)
/opt/intel/composer_xe_2015.3.187/compiler/lib/intel64/libifcore.a(for_rint_fmt.o)
                              /gpfs/hps/emc/global/noscrub/Boi.Vuong/lib/graphics/v2.0.0/intel/libgph_v2.0.0_8.a(consol.o) (for_read_int_fmt)
/opt/intel/composer_xe_2015.3.187/compiler/lib/intel64/libifcore.a(for_secnds.o)
                              /opt/intel/composer_xe_2015.3.187/compiler/lib/intel64/libifcore.a(for_init.o) (for_since_epoch_t)
/opt/intel/composer_xe_2015.3.187/compiler/lib/intel64/libifcore.a(for_stop.o)
                              fxcompoz.o (for_stop_core)
/opt/intel/composer_xe_2015.3.187/compiler/lib/intel64/libifcore.a(for_vm.o)
                              /opt/intel/composer_xe_2015.3.187/compiler/lib/intel64/libifcore.a(for_init.o) (for__set_signal_ops_during_vm)
/opt/intel/composer_xe_2015.3.187/compiler/lib/intel64/libifcore.a(for_wdir.o)
                              fxcompoz.o (for_write_dir)
/opt/intel/composer_xe_2015.3.187/compiler/lib/intel64/libifcore.a(for_wint_fmt.o)
                              fxcompoz.o (for_write_int_fmt)
/opt/intel/composer_xe_2015.3.187/compiler/lib/intel64/libifcore.a(for_wseq.o)
                              /opt/intel/composer_xe_2015.3.187/compiler/lib/intel64/libifcore.a(for_rewind.o) (for__finish_ufseq_write)
/opt/intel/composer_xe_2015.3.187/compiler/lib/intel64/libifcore.a(for_wseq_fmt.o)
                              fxcompoz.o (for_write_seq_fmt)
/opt/intel/composer_xe_2015.3.187/compiler/lib/intel64/libifcore.a(for_wseq_lis.o)
                              fxcompoz.o (for_write_seq_lis)
/opt/intel/composer_xe_2015.3.187/compiler/lib/intel64/libifcore.a(for_90_date.o)
                              /gpfs/hps/nco/ops/nwprod/lib/w3nco/v2.0.6/intel/libw3nco_v2.0.6_8.a(w3locdat.o) (for_date_and_time)
/opt/intel/composer_xe_2015.3.187/compiler/lib/intel64/libifcore.a(for_90_index.o)
                              fxcompozlib.o (for_f90_index)
/opt/intel/composer_xe_2015.3.187/compiler/lib/intel64/libifcore.a(for_90_trim.o)
                              /gpfs/hps/emc/global/noscrub/Boi.Vuong/lib/graphics/v2.0.0/intel/libgph_v2.0.0_8.a(consol.o) (for_len_trim)
/opt/intel/composer_xe_2015.3.187/compiler/lib/intel64/libifcore.a(for_f90str.o)
                              fxcompoz.o (for_cpystr)
/opt/intel/composer_xe_2015.3.187/compiler/lib/intel64/libifcore.a(tbk_traceback.o)
                              /opt/intel/composer_xe_2015.3.187/compiler/lib/intel64/libifcore.a(for_diags_intel.o) (tbk_stack_trace)
/opt/intel/composer_xe_2015.3.187/compiler/lib/intel64/libifcore.a(for_aio.o)
                              /opt/intel/composer_xe_2015.3.187/compiler/lib/intel64/libifcore.a(tbk_traceback.o) (for__pthread_mutex_unlock_ptr)
/opt/intel/composer_xe_2015.3.187/compiler/lib/intel64/libifcore.a(for_open_proc.o)
                              /opt/intel/composer_xe_2015.3.187/compiler/lib/intel64/libifcore.a(for_open.o) (for__reopen_file)
/opt/intel/composer_xe_2015.3.187/compiler/lib/intel64/libifcore.a(for_aio_wrap.o)
                              /opt/intel/composer_xe_2015.3.187/compiler/lib/intel64/libifcore.a(for_aio.o) (for__aio_pthread_self)
/opt/intel/composer_xe_2015.3.187/compiler/lib/intel64/libifcore.a(cvt_text_to_int.o)
                              /opt/intel/composer_xe_2015.3.187/compiler/lib/intel64/libifcore.a(for_open_proc.o) (cvt_text_to_integer)
/opt/intel/composer_xe_2015.3.187/compiler/lib/intel64/libifcore.a(cvt_vax_f.o)
                              /opt/intel/composer_xe_2015.3.187/compiler/lib/intel64/libifcore.a(for_io_util.o) (cvt_vax_f_to_ieee_single)
/opt/intel/composer_xe_2015.3.187/compiler/lib/intel64/libifcore.a(cvt_vax_d.o)
                              /opt/intel/composer_xe_2015.3.187/compiler/lib/intel64/libifcore.a(for_io_util.o) (cvt_vax_d_to_ieee_double)
/opt/intel/composer_xe_2015.3.187/compiler/lib/intel64/libifcore.a(cvt_vax_g.o)
                              /opt/intel/composer_xe_2015.3.187/compiler/lib/intel64/libifcore.a(for_io_util.o) (cvt_vax_g_to_ieee_double)
/opt/intel/composer_xe_2015.3.187/compiler/lib/intel64/libifcore.a(cvt_cray.o)
                              /opt/intel/composer_xe_2015.3.187/compiler/lib/intel64/libifcore.a(for_io_util.o) (cvt_cray_to_ieee_double)
/opt/intel/composer_xe_2015.3.187/compiler/lib/intel64/libifcore.a(cvt_ibm_short.o)
                              /opt/intel/composer_xe_2015.3.187/compiler/lib/intel64/libifcore.a(for_io_util.o) (cvt_ibm_short_to_ieee_single)
/opt/intel/composer_xe_2015.3.187/compiler/lib/intel64/libifcore.a(cvt_ibm_long.o)
                              /opt/intel/composer_xe_2015.3.187/compiler/lib/intel64/libifcore.a(for_io_util.o) (cvt_ibm_long_to_ieee_double)
/opt/intel/composer_xe_2015.3.187/compiler/lib/intel64/libifcore.a(cvt_ieee_double.o)
                              /opt/intel/composer_xe_2015.3.187/compiler/lib/intel64/libifcore.a(for_io_util.o) (cvt_ieee_double_to_cray)
/opt/intel/composer_xe_2015.3.187/compiler/lib/intel64/libifcore.a(cvt_ieee_single.o)
                              /opt/intel/composer_xe_2015.3.187/compiler/lib/intel64/libifcore.a(for_io_util.o) (cvt_ieee_single_to_ibm_short)
/opt/intel/composer_xe_2015.3.187/compiler/lib/intel64/libifcore.a(for_close.o)
                              /opt/intel/composer_xe_2015.3.187/compiler/lib/intel64/libifcore.a(for_diags_intel.o) (for__close_default)
/opt/intel/composer_xe_2015.3.187/compiler/lib/intel64/libifcore.a(for_close_proc.o)
                              /opt/intel/composer_xe_2015.3.187/compiler/lib/intel64/libifcore.a(for_exit_handler.o) (for__close_proc)
/opt/intel/composer_xe_2015.3.187/compiler/lib/intel64/libifcore.a(for_default_io_sizes_env_init.o)
                              /opt/intel/composer_xe_2015.3.187/compiler/lib/intel64/libifcore.a(for_init.o) (for__default_io_sizes_env_init)
/opt/intel/composer_xe_2015.3.187/compiler/lib/intel64/libifcore.a(for_desc_item.o)
                              /opt/intel/composer_xe_2015.3.187/compiler/lib/intel64/libifcore.a(for_rdir.o) (for__desc_ret_item)
/opt/intel/composer_xe_2015.3.187/compiler/lib/intel64/libifcore.a(for_fmt_comp.o)
                              /opt/intel/composer_xe_2015.3.187/compiler/lib/intel64/libifcore.a(for_rint_fmt.o) (for__format_compiler)
/opt/intel/composer_xe_2015.3.187/compiler/lib/intel64/libifcore.a(for_fmt_val.o)
                              /opt/intel/composer_xe_2015.3.187/compiler/lib/intel64/libifcore.a(for_wint_fmt.o) (for__format_value)
/opt/intel/composer_xe_2015.3.187/compiler/lib/intel64/libifcore.a(for_get.o)
                              /opt/intel/composer_xe_2015.3.187/compiler/lib/intel64/libifcore.a(for_open_proc.o) (for__get_s)
/opt/intel/composer_xe_2015.3.187/compiler/lib/intel64/libifcore.a(for_index.o)
                              /opt/intel/composer_xe_2015.3.187/compiler/lib/intel64/libifcore.a(for_90_index.o) (for_index)
/opt/intel/composer_xe_2015.3.187/compiler/lib/intel64/libifcore.a(for_intrp_fmt.o)
                              /opt/intel/composer_xe_2015.3.187/compiler/lib/intel64/libifcore.a(for_rint_fmt.o) (for__interp_fmt)
/opt/intel/composer_xe_2015.3.187/compiler/lib/intel64/libifcore.a(for_ldir_wfs.o)
                              /opt/intel/composer_xe_2015.3.187/compiler/lib/intel64/libifcore.a(for_wseq_lis.o) (for__wfs_table)
/opt/intel/composer_xe_2015.3.187/compiler/lib/intel64/libifcore.a(for_need_lf.o)
                              /opt/intel/composer_xe_2015.3.187/compiler/lib/intel64/libifcore.a(for_open_proc.o) (for__add_to_lf_table)
/opt/intel/composer_xe_2015.3.187/compiler/lib/intel64/libifcore.a(cvt__globals.o)
                              /opt/intel/composer_xe_2015.3.187/compiler/lib/intel64/libifcore.a(cvt_ieee_double.o) (vax_c)
/opt/intel/composer_xe_2015.3.187/compiler/lib/intel64/libifcore.a(cvt_int_to_text.o)
                              /opt/intel/composer_xe_2015.3.187/compiler/lib/intel64/libifcore.a(for_fmt_val.o) (cvt_integer_to_text)
/opt/intel/composer_xe_2015.3.187/compiler/lib/intel64/libifcore.a(cvt_data_to_text.o)
                              /opt/intel/composer_xe_2015.3.187/compiler/lib/intel64/libifcore.a(for_fmt_val.o) (cvt_data_to_text)
/opt/intel/composer_xe_2015.3.187/compiler/lib/intel64/libifcore.a(cvt_log_to_text.o)
                              /opt/intel/composer_xe_2015.3.187/compiler/lib/intel64/libifcore.a(for_fmt_val.o) (cvt_boolean_to_text_ex)
/opt/intel/composer_xe_2015.3.187/compiler/lib/intel64/libifcore.a(cvt_text_to_data.o)
                              /opt/intel/composer_xe_2015.3.187/compiler/lib/intel64/libifcore.a(for_fmt_val.o) (cvt_text_to_data)
/opt/intel/composer_xe_2015.3.187/compiler/lib/intel64/libifcore.a(cvt_text_to_log.o)
                              /opt/intel/composer_xe_2015.3.187/compiler/lib/intel64/libifcore.a(for_fmt_val.o) (cvt_text_to_boolean)
/opt/intel/composer_xe_2015.3.187/compiler/lib/intel64/libifcore.a(cvt_cvtas_t.o)
                              /opt/intel/composer_xe_2015.3.187/compiler/lib/intel64/libifcore.a(for_fmt_val.o) (cvt_ieee_t_to_text_ex)
/opt/intel/composer_xe_2015.3.187/compiler/lib/intel64/libifcore.a(cvt_cvtas_s.o)
                              /opt/intel/composer_xe_2015.3.187/compiler/lib/intel64/libifcore.a(for_fmt_val.o) (cvt_ieee_s_to_text_ex)
/opt/intel/composer_xe_2015.3.187/compiler/lib/intel64/libifcore.a(cvt_cvtas_x.o)
                              /opt/intel/composer_xe_2015.3.187/compiler/lib/intel64/libifcore.a(for_fmt_val.o) (cvt_ieee_x_to_text_ex)
/opt/intel/composer_xe_2015.3.187/compiler/lib/intel64/libifcore.a(cvtas_a_to_s.o)
                              /opt/intel/composer_xe_2015.3.187/compiler/lib/intel64/libifcore.a(cvt_cvtas_s.o) (cvtas_a_to_s)
/opt/intel/composer_xe_2015.3.187/compiler/lib/intel64/libifcore.a(cvtas_a_to_t.o)
                              /opt/intel/composer_xe_2015.3.187/compiler/lib/intel64/libifcore.a(cvt_cvtas_t.o) (cvtas_a_to_t)
/opt/intel/composer_xe_2015.3.187/compiler/lib/intel64/libifcore.a(cvtas_s_to_a.o)
                              /opt/intel/composer_xe_2015.3.187/compiler/lib/intel64/libifcore.a(cvt_cvtas_s.o) (cvtas_s_to_a)
/opt/intel/composer_xe_2015.3.187/compiler/lib/intel64/libifcore.a(cvtas_t_to_a.o)
                              /opt/intel/composer_xe_2015.3.187/compiler/lib/intel64/libifcore.a(cvt_cvtas_t.o) (cvtas_t_to_a)
/opt/intel/composer_xe_2015.3.187/compiler/lib/intel64/libifcore.a(cvtas_nan_s.o)
                              /opt/intel/composer_xe_2015.3.187/compiler/lib/intel64/libifcore.a(cvtas_a_to_s.o) (cvtas__nan_s)
/opt/intel/composer_xe_2015.3.187/compiler/lib/intel64/libifcore.a(cvtas_nan_t.o)
                              /opt/intel/composer_xe_2015.3.187/compiler/lib/intel64/libifcore.a(cvtas_a_to_t.o) (cvtas__nan_t)
/opt/intel/composer_xe_2015.3.187/compiler/lib/intel64/libifcore.a(cvtas_a_to_x.o)
                              /opt/intel/composer_xe_2015.3.187/compiler/lib/intel64/libifcore.a(cvt_cvtas_x.o) (cvtas_a_to_x)
/opt/intel/composer_xe_2015.3.187/compiler/lib/intel64/libifcore.a(cvtas_x_to_a.o)
                              /opt/intel/composer_xe_2015.3.187/compiler/lib/intel64/libifcore.a(cvt_cvtas_x.o) (cvtas_x_to_a)
/opt/intel/composer_xe_2015.3.187/compiler/lib/intel64/libifcore.a(cvtas_nan_x.o)
                              /opt/intel/composer_xe_2015.3.187/compiler/lib/intel64/libifcore.a(cvtas_a_to_x.o) (cvtas__nan_x)
/opt/intel/composer_xe_2015.3.187/compiler/lib/intel64/libifcore.a(cvtas_globals.o)
                              /opt/intel/composer_xe_2015.3.187/compiler/lib/intel64/libifcore.a(cvtas_a_to_t.o) (cvtas_pten_word)
/opt/intel/composer_xe_2015.3.187/compiler/lib/intel64/libifcore.a(cvtas_pow_ten_53.o)
                              /opt/intel/composer_xe_2015.3.187/compiler/lib/intel64/libifcore.a(cvtas_a_to_s.o) (cvtas_pten_t)
/opt/intel/composer_xe_2015.3.187/compiler/lib/intel64/libifcore.a(cvtas_pow_ten_64.o)
                              /opt/intel/composer_xe_2015.3.187/compiler/lib/intel64/libifcore.a(cvtas_a_to_t.o) (cvtas_pten_64)
/opt/intel/composer_xe_2015.3.187/compiler/lib/intel64/libifcore.a(cvtas_pow_ten_128.o)
                              /opt/intel/composer_xe_2015.3.187/compiler/lib/intel64/libifcore.a(cvtas_s_to_a.o) (cvtas_pten_128)
/opt/intel/composer_xe_2015.3.187/compiler/lib/intel64/libimf.a(fetestexcept.o)
                              /opt/intel/composer_xe_2015.3.187/compiler/lib/intel64/libifcore.a(for_stop.o) (fetestexcept)
/opt/intel/composer_xe_2015.3.187/compiler/lib/intel64/libimf.a(log_stub.o)
                              /gpfs/hps/emc/global/noscrub/Boi.Vuong/lib/graphics/v2.0.0/intel/libutil_v2.0.0.a(sbytesccs.o) (log)
/opt/intel/composer_xe_2015.3.187/compiler/lib/intel64/libimf.a(log_ct.o)
                              /opt/intel/composer_xe_2015.3.187/compiler/lib/intel64/libimf.a(log_stub.o) (log.L)
/opt/intel/composer_xe_2015.3.187/compiler/lib/intel64/libimf.a(log_gen.o)
                              /opt/intel/composer_xe_2015.3.187/compiler/lib/intel64/libimf.a(log_stub.o) (log.A)
/opt/intel/composer_xe_2015.3.187/compiler/lib/intel64/libimf.a(libm_error.o)
                              /opt/intel/composer_xe_2015.3.187/compiler/lib/intel64/libimf.a(log_ct.o) (__libm_error_support)
/opt/intel/composer_xe_2015.3.187/compiler/lib/intel64/libimf.a(matherrf.o)
                              /opt/intel/composer_xe_2015.3.187/compiler/lib/intel64/libimf.a(libm_error.o) (matherrf)
/opt/intel/composer_xe_2015.3.187/compiler/lib/intel64/libimf.a(matherrl.o)
                              /opt/intel/composer_xe_2015.3.187/compiler/lib/intel64/libimf.a(libm_error.o) (matherrl)
/opt/intel/composer_xe_2015.3.187/compiler/lib/intel64/libimf.a(matherr.o)
                              /opt/intel/composer_xe_2015.3.187/compiler/lib/intel64/libimf.a(libm_error.o) (matherr)
/opt/intel/composer_xe_2015.3.187/compiler/lib/intel64/libirc.a(ints2q.o)
                              /opt/intel/composer_xe_2015.3.187/compiler/lib/intel64/libifcore.a(for_secnds.o) (__jtoq)
/opt/intel/composer_xe_2015.3.187/compiler/lib/intel64/libirc.a(qcomp.o)
                              /opt/intel/composer_xe_2015.3.187/compiler/lib/intel64/libifcore.a(for_secnds.o) (__neq)
/opt/intel/composer_xe_2015.3.187/compiler/lib/intel64/libirc.a(fp2q.o)
                              /opt/intel/composer_xe_2015.3.187/compiler/lib/intel64/libifcore.a(for_secnds.o) (__dtoq)
/opt/intel/composer_xe_2015.3.187/compiler/lib/intel64/libirc.a(q2fp.o)
                              /opt/intel/composer_xe_2015.3.187/compiler/lib/intel64/libifcore.a(for_secnds.o) (__qtof)
/opt/intel/composer_xe_2015.3.187/compiler/lib/intel64/libirc.a(tbk_display.o)
                              /opt/intel/composer_xe_2015.3.187/compiler/lib/intel64/libifcore.a(tbk_traceback.o) (tbk_string_stack_signal_impl)
/opt/intel/composer_xe_2015.3.187/compiler/lib/intel64/libirc.a(tbk_backtrace.o)
                              /opt/intel/composer_xe_2015.3.187/compiler/lib/intel64/libirc.a(tbk_display.o) (tbk_getPC)
/opt/intel/composer_xe_2015.3.187/compiler/lib/intel64/libirc.a(cpu_feature_disp.o)
                              /gpfs/hps/nco/ops/nwprod/lib/w3nco/v2.0.6/intel/libw3nco_v2.0.6_8.a(w3tagb.o) (__intel_cpu_features_init_x)
/opt/intel/composer_xe_2015.3.187/compiler/lib/intel64/libirc.a(ia32_memcmp.o)
                              /opt/intel/composer_xe_2015.3.187/compiler/lib/intel64/libifcore.a(for_endfile.o) (_intel_fast_memcmp)
/opt/intel/composer_xe_2015.3.187/compiler/lib/intel64/libirc.a(fastmemcpy.o)
                              /opt/intel/composer_xe_2015.3.187/compiler/lib/intel64/libifcore.a(for_diags_intel.o) (_intel_fast_memcpy)
/opt/intel/composer_xe_2015.3.187/compiler/lib/intel64/libirc.a(fastmemmove.o)
                              /gpfs/hps/nco/ops/nwprod/lib/w3emc/v2.2.0/intel/libw3emc_v2.2.0_8.a(mova2i.o) (_intel_fast_memmove)
/opt/intel/composer_xe_2015.3.187/compiler/lib/intel64/libirc.a(fastmemset.o)
                              /opt/intel/composer_xe_2015.3.187/compiler/lib/intel64/libifport.a(getenv.o) (_intel_fast_memset)
/opt/intel/composer_xe_2015.3.187/compiler/lib/intel64/libirc.a(new_proc_init.o)
                              /opt/intel/composer_xe_2015.3.187/compiler/lib/intel64/for_main.o (__intel_new_feature_proc_init)
/opt/intel/composer_xe_2015.3.187/compiler/lib/intel64/libirc.a(ia32_addsubq.o)
                              /opt/intel/composer_xe_2015.3.187/compiler/lib/intel64/libifcore.a(for_secnds.o) (__addq)
/opt/intel/composer_xe_2015.3.187/compiler/lib/intel64/libirc.a(ia32_divq.o)
                              /opt/intel/composer_xe_2015.3.187/compiler/lib/intel64/libifcore.a(for_secnds.o) (__divq)
/opt/intel/composer_xe_2015.3.187/compiler/lib/intel64/libirc.a(sse2_strcpy.o)
                              /opt/intel/composer_xe_2015.3.187/compiler/lib/intel64/libifport.a(getenv.o) (__intel_sse2_strcpy)
/opt/intel/composer_xe_2015.3.187/compiler/lib/intel64/libirc.a(sse2_strncpy.o)
                              open99.o (__intel_sse2_strncpy)
/opt/intel/composer_xe_2015.3.187/compiler/lib/intel64/libirc.a(sse2_strlen.o)
                              open99.o (__intel_sse2_strlen)
/opt/intel/composer_xe_2015.3.187/compiler/lib/intel64/libirc.a(sse2_strchr.o)
                              /opt/intel/composer_xe_2015.3.187/compiler/lib/intel64/libifcore.a(for_diags_intel.o) (__intel_sse2_strchr)
/opt/intel/composer_xe_2015.3.187/compiler/lib/intel64/libirc.a(sse2_strncmp.o)
                              /opt/intel/composer_xe_2015.3.187/compiler/lib/intel64/libifcore.a(for_diags_intel.o) (__intel_sse2_strncmp)
/opt/intel/composer_xe_2015.3.187/compiler/lib/intel64/libirc.a(sse2_strcat.o)
                              /opt/intel/composer_xe_2015.3.187/compiler/lib/intel64/libifcore.a(tbk_traceback.o) (__intel_sse2_strcat)
/opt/intel/composer_xe_2015.3.187/compiler/lib/intel64/libirc.a(sse2_strncat.o)
                              /opt/intel/composer_xe_2015.3.187/compiler/lib/intel64/libifcore.a(for_open_proc.o) (__intel_sse2_strncat)
/opt/intel/composer_xe_2015.3.187/compiler/lib/intel64/libirc.a(fast_memcpy_pp.o)
                              /opt/intel/composer_xe_2015.3.187/compiler/lib/intel64/libirc.a(fastmemcpy.o) (__intel_new_memcpy)
/opt/intel/composer_xe_2015.3.187/compiler/lib/intel64/libirc.a(fast_memset_pp.o)
                              /opt/intel/composer_xe_2015.3.187/compiler/lib/intel64/libirc.a(fastmemset.o) (__intel_new_memset)
/opt/intel/composer_xe_2015.3.187/compiler/lib/intel64/libirc.a(intel_ssse3_memcpy.o)
                              /opt/intel/composer_xe_2015.3.187/compiler/lib/intel64/libirc.a(fastmemcpy.o) (__intel_ssse3_memcpy)
/opt/intel/composer_xe_2015.3.187/compiler/lib/intel64/libirc.a(intel_ssse3_rep_memcpy.o)
                              /opt/intel/composer_xe_2015.3.187/compiler/lib/intel64/libirc.a(fastmemcpy.o) (__intel_ssse3_rep_memcpy)
/opt/intel/composer_xe_2015.3.187/compiler/lib/intel64/libirc.a(intel_ssse3_memmove.o)
                              /opt/intel/composer_xe_2015.3.187/compiler/lib/intel64/libirc.a(fastmemmove.o) (__intel_ssse3_memmove)
/opt/intel/composer_xe_2015.3.187/compiler/lib/intel64/libirc.a(intel_ssse3_rep_memmove.o)
                              /opt/intel/composer_xe_2015.3.187/compiler/lib/intel64/libirc.a(fastmemmove.o) (__intel_ssse3_rep_memmove)
/opt/intel/composer_xe_2015.3.187/compiler/lib/intel64/libirc.a(irc_msg_support.o)
                              /opt/intel/composer_xe_2015.3.187/compiler/lib/intel64/libirc.a(tbk_backtrace.o) (__libirc_get_msg)
/opt/intel/composer_xe_2015.3.187/compiler/lib/intel64/libirc.a(fast_mem_ops.o)
                              /opt/intel/composer_xe_2015.3.187/compiler/lib/intel64/libirc.a(fast_memset_pp.o) (__libirc_largest_cache_size)
/opt/intel/composer_xe_2015.3.187/compiler/lib/intel64/libirc.a(proc_init_utils.o)
                              /opt/intel/composer_xe_2015.3.187/compiler/lib/intel64/libirc.a(new_proc_init.o) (__intel_proc_init_ftzdazule)
/usr/lib64/libc_nonshared.a(elf-init.oS)
                              /usr/lib/../lib64/crt1.o (__libc_csu_fini)

Allocating common symbols
Common symbol       size              file

MPI_Group_compare_data
                    0x340             /gpfs/hps/nco/ops/nwprod/lib/w3nco/v2.0.6/intel/libw3nco_v2.0.6_8.a(summary.o)
MPI_Allgatherv_data
                    0x340             /gpfs/hps/nco/ops/nwprod/lib/w3nco/v2.0.6/intel/libw3nco_v2.0.6_8.a(summary.o)
MPI_Sendrecv_data   0x340             /gpfs/hps/nco/ops/nwprod/lib/w3nco/v2.0.6/intel/libw3nco_v2.0.6_8.a(summary.o)
MPI_Reduce_scatter_data
                    0x340             /gpfs/hps/nco/ops/nwprod/lib/w3nco/v2.0.6/intel/libw3nco_v2.0.6_8.a(summary.o)
MPI_Testsome_data   0x340             /gpfs/hps/nco/ops/nwprod/lib/w3nco/v2.0.6/intel/libw3nco_v2.0.6_8.a(summary.o)
MPI_Type_vector_data
                    0x340             /gpfs/hps/nco/ops/nwprod/lib/w3nco/v2.0.6/intel/libw3nco_v2.0.6_8.a(summary.o)
MPI_Group_difference_data
                    0x340             /gpfs/hps/nco/ops/nwprod/lib/w3nco/v2.0.6/intel/libw3nco_v2.0.6_8.a(summary.o)
profile             0x4               /gpfs/hps/nco/ops/nwprod/lib/w3nco/v2.0.6/intel/libw3nco_v2.0.6_8.a(summary.o)
MPI_Cancel_data     0x340             /gpfs/hps/nco/ops/nwprod/lib/w3nco/v2.0.6/intel/libw3nco_v2.0.6_8.a(summary.o)
MPI_Type_commit_data
                    0x340             /gpfs/hps/nco/ops/nwprod/lib/w3nco/v2.0.6/intel/libw3nco_v2.0.6_8.a(summary.o)
MPI_Waitall_data    0x340             /gpfs/hps/nco/ops/nwprod/lib/w3nco/v2.0.6/intel/libw3nco_v2.0.6_8.a(summary.o)
MPI_Group_range_incl_data
                    0x340             /gpfs/hps/nco/ops/nwprod/lib/w3nco/v2.0.6/intel/libw3nco_v2.0.6_8.a(summary.o)
twall               0x8               /gpfs/hps/nco/ops/nwprod/lib/w3nco/v2.0.6/intel/libw3nco_v2.0.6_8.a(summary.o)
cpu_comm            0x8               /gpfs/hps/nco/ops/nwprod/lib/w3nco/v2.0.6/intel/libw3nco_v2.0.6_8.a(summary.o)
for__pthread_mutex_unlock_ptr
                    0x8               /opt/intel/composer_xe_2015.3.187/compiler/lib/intel64/libifcore.a(for_aio.o)
MPI_Rsend_data      0x340             /gpfs/hps/nco/ops/nwprod/lib/w3nco/v2.0.6/intel/libw3nco_v2.0.6_8.a(summary.o)
MPI_Reduce_data     0x340             /gpfs/hps/nco/ops/nwprod/lib/w3nco/v2.0.6/intel/libw3nco_v2.0.6_8.a(summary.o)
MPI_Type_hindexed_data
                    0x340             /gpfs/hps/nco/ops/nwprod/lib/w3nco/v2.0.6/intel/libw3nco_v2.0.6_8.a(summary.o)
MPI_Attr_delete_data
                    0x340             /gpfs/hps/nco/ops/nwprod/lib/w3nco/v2.0.6/intel/libw3nco_v2.0.6_8.a(summary.o)
MPI_Graph_map_data  0x340             /gpfs/hps/nco/ops/nwprod/lib/w3nco/v2.0.6/intel/libw3nco_v2.0.6_8.a(summary.o)
MPI_Waitsome_data   0x340             /gpfs/hps/nco/ops/nwprod/lib/w3nco/v2.0.6/intel/libw3nco_v2.0.6_8.a(summary.o)
MPI_Scan_data       0x340             /gpfs/hps/nco/ops/nwprod/lib/w3nco/v2.0.6/intel/libw3nco_v2.0.6_8.a(summary.o)
MPI_Probe_data      0x340             /gpfs/hps/nco/ops/nwprod/lib/w3nco/v2.0.6/intel/libw3nco_v2.0.6_8.a(summary.o)
MPI_Startall_data   0x340             /gpfs/hps/nco/ops/nwprod/lib/w3nco/v2.0.6/intel/libw3nco_v2.0.6_8.a(summary.o)
MPI_Start_data      0x340             /gpfs/hps/nco/ops/nwprod/lib/w3nco/v2.0.6/intel/libw3nco_v2.0.6_8.a(summary.o)
MPI_Group_size_data
                    0x340             /gpfs/hps/nco/ops/nwprod/lib/w3nco/v2.0.6/intel/libw3nco_v2.0.6_8.a(summary.o)
for__pthread_mutex_lock_ptr
                    0x8               /opt/intel/composer_xe_2015.3.187/compiler/lib/intel64/libifcore.a(for_aio.o)
MPI_Type_ub_data    0x340             /gpfs/hps/nco/ops/nwprod/lib/w3nco/v2.0.6/intel/libw3nco_v2.0.6_8.a(summary.o)
MPI_Error_class_data
                    0x340             /gpfs/hps/nco/ops/nwprod/lib/w3nco/v2.0.6/intel/libw3nco_v2.0.6_8.a(summary.o)
MPI_Send_data       0x340             /gpfs/hps/nco/ops/nwprod/lib/w3nco/v2.0.6/intel/libw3nco_v2.0.6_8.a(summary.o)
MPI_Group_union_data
                    0x340             /gpfs/hps/nco/ops/nwprod/lib/w3nco/v2.0.6/intel/libw3nco_v2.0.6_8.a(summary.o)
MPI_Comm_group_data
                    0x340             /gpfs/hps/nco/ops/nwprod/lib/w3nco/v2.0.6/intel/libw3nco_v2.0.6_8.a(summary.o)
MPI_Test_data       0x340             /gpfs/hps/nco/ops/nwprod/lib/w3nco/v2.0.6/intel/libw3nco_v2.0.6_8.a(summary.o)
MPI_Wtime_data      0x340             /gpfs/hps/nco/ops/nwprod/lib/w3nco/v2.0.6/intel/libw3nco_v2.0.6_8.a(summary.o)
MPI_Errhandler_get_data
                    0x340             /gpfs/hps/nco/ops/nwprod/lib/w3nco/v2.0.6/intel/libw3nco_v2.0.6_8.a(summary.o)
MPI_Irsend_data     0x340             /gpfs/hps/nco/ops/nwprod/lib/w3nco/v2.0.6/intel/libw3nco_v2.0.6_8.a(summary.o)
MPI_Bcast_data      0x340             /gpfs/hps/nco/ops/nwprod/lib/w3nco/v2.0.6/intel/libw3nco_v2.0.6_8.a(summary.o)
ftxx                0x320             open99.o
MPI_Isend_data      0x340             /gpfs/hps/nco/ops/nwprod/lib/w3nco/v2.0.6/intel/libw3nco_v2.0.6_8.a(summary.o)
MPI_Ssend_init_data
                    0x340             /gpfs/hps/nco/ops/nwprod/lib/w3nco/v2.0.6/intel/libw3nco_v2.0.6_8.a(summary.o)
MPI_Abort_data      0x340             /gpfs/hps/nco/ops/nwprod/lib/w3nco/v2.0.6/intel/libw3nco_v2.0.6_8.a(summary.o)
MPI_Pack_data       0x340             /gpfs/hps/nco/ops/nwprod/lib/w3nco/v2.0.6/intel/libw3nco_v2.0.6_8.a(summary.o)
MPI_Request_free_data
                    0x340             /gpfs/hps/nco/ops/nwprod/lib/w3nco/v2.0.6/intel/libw3nco_v2.0.6_8.a(summary.o)
MPI_Op_create_data  0x340             /gpfs/hps/nco/ops/nwprod/lib/w3nco/v2.0.6/intel/libw3nco_v2.0.6_8.a(summary.o)
MPI_Errhandler_free_data
                    0x340             /gpfs/hps/nco/ops/nwprod/lib/w3nco/v2.0.6/intel/libw3nco_v2.0.6_8.a(summary.o)
msglen              0x4               /gpfs/hps/nco/ops/nwprod/lib/w3nco/v2.0.6/intel/libw3nco_v2.0.6_8.a(summary.o)
MPI_Cart_rank_data  0x340             /gpfs/hps/nco/ops/nwprod/lib/w3nco/v2.0.6/intel/libw3nco_v2.0.6_8.a(summary.o)
spac4img_           0x18b840          fxcompoz.o
procid_0            0x4               /gpfs/hps/nco/ops/nwprod/lib/w3nco/v2.0.6/intel/libw3nco_v2.0.6_8.a(summary.o)
MPI_Cart_map_data   0x340             /gpfs/hps/nco/ops/nwprod/lib/w3nco/v2.0.6/intel/libw3nco_v2.0.6_8.a(summary.o)
MPI_Cart_shift_data
                    0x340             /gpfs/hps/nco/ops/nwprod/lib/w3nco/v2.0.6/intel/libw3nco_v2.0.6_8.a(summary.o)
MPI_Alltoall_data   0x340             /gpfs/hps/nco/ops/nwprod/lib/w3nco/v2.0.6/intel/libw3nco_v2.0.6_8.a(summary.o)
MPI_Address_data    0x340             /gpfs/hps/nco/ops/nwprod/lib/w3nco/v2.0.6/intel/libw3nco_v2.0.6_8.a(summary.o)
MPI_Group_intersection_data
                    0x340             /gpfs/hps/nco/ops/nwprod/lib/w3nco/v2.0.6/intel/libw3nco_v2.0.6_8.a(summary.o)
thread_count_mutex  0x28              /opt/intel/composer_xe_2015.3.187/compiler/lib/intel64/libifcore.a(for_aio.o)
for__pthread_mutex_init_ptr
                    0x8               /opt/intel/composer_xe_2015.3.187/compiler/lib/intel64/libifcore.a(for_aio.o)
MPI_Type_lb_data    0x340             /gpfs/hps/nco/ops/nwprod/lib/w3nco/v2.0.6/intel/libw3nco_v2.0.6_8.a(summary.o)
MPI_Errhandler_create_data
                    0x340             /gpfs/hps/nco/ops/nwprod/lib/w3nco/v2.0.6/intel/libw3nco_v2.0.6_8.a(summary.o)
MPI_Recv_init_data  0x340             /gpfs/hps/nco/ops/nwprod/lib/w3nco/v2.0.6/intel/libw3nco_v2.0.6_8.a(summary.o)
MPI_Graph_create_data
                    0x340             /gpfs/hps/nco/ops/nwprod/lib/w3nco/v2.0.6/intel/libw3nco_v2.0.6_8.a(summary.o)
MPI_Keyval_free_data
                    0x340             /gpfs/hps/nco/ops/nwprod/lib/w3nco/v2.0.6/intel/libw3nco_v2.0.6_8.a(summary.o)
MPI_Type_indexed_data
                    0x340             /gpfs/hps/nco/ops/nwprod/lib/w3nco/v2.0.6/intel/libw3nco_v2.0.6_8.a(summary.o)
MPI_Type_hvector_data
                    0x340             /gpfs/hps/nco/ops/nwprod/lib/w3nco/v2.0.6/intel/libw3nco_v2.0.6_8.a(summary.o)
MPI_Comm_remote_group_data
                    0x340             /gpfs/hps/nco/ops/nwprod/lib/w3nco/v2.0.6/intel/libw3nco_v2.0.6_8.a(summary.o)
MPI_Type_struct_data
                    0x340             /gpfs/hps/nco/ops/nwprod/lib/w3nco/v2.0.6/intel/libw3nco_v2.0.6_8.a(summary.o)
MPI_Group_translate_ranks_data
                    0x340             /gpfs/hps/nco/ops/nwprod/lib/w3nco/v2.0.6/intel/libw3nco_v2.0.6_8.a(summary.o)
MPI_Gatherv_data    0x340             /gpfs/hps/nco/ops/nwprod/lib/w3nco/v2.0.6/intel/libw3nco_v2.0.6_8.a(summary.o)
MPI_Group_range_excl_data
                    0x340             /gpfs/hps/nco/ops/nwprod/lib/w3nco/v2.0.6/intel/libw3nco_v2.0.6_8.a(summary.o)
final_wall          0x8               /gpfs/hps/nco/ops/nwprod/lib/w3nco/v2.0.6/intel/libw3nco_v2.0.6_8.a(summary.o)
MPI_Cart_coords_data
                    0x340             /gpfs/hps/nco/ops/nwprod/lib/w3nco/v2.0.6/intel/libw3nco_v2.0.6_8.a(summary.o)
tbytes              0x8               /gpfs/hps/nco/ops/nwprod/lib/w3nco/v2.0.6/intel/libw3nco_v2.0.6_8.a(summary.o)
MPI_Get_count_data  0x340             /gpfs/hps/nco/ops/nwprod/lib/w3nco/v2.0.6/intel/libw3nco_v2.0.6_8.a(summary.o)
MPI_Comm_remote_size_data
                    0x340             /gpfs/hps/nco/ops/nwprod/lib/w3nco/v2.0.6/intel/libw3nco_v2.0.6_8.a(summary.o)
MPI_Type_size_data  0x340             /gpfs/hps/nco/ops/nwprod/lib/w3nco/v2.0.6/intel/libw3nco_v2.0.6_8.a(summary.o)
MPI_Ibsend_data     0x340             /gpfs/hps/nco/ops/nwprod/lib/w3nco/v2.0.6/intel/libw3nco_v2.0.6_8.a(summary.o)
MPI_Group_excl_data
                    0x340             /gpfs/hps/nco/ops/nwprod/lib/w3nco/v2.0.6/intel/libw3nco_v2.0.6_8.a(summary.o)
MPI_Iprobe_data     0x340             /gpfs/hps/nco/ops/nwprod/lib/w3nco/v2.0.6/intel/libw3nco_v2.0.6_8.a(summary.o)
proddesc_           0x1ea08           fxcompoz.o
MPI_Dims_create_data
                    0x340             /gpfs/hps/nco/ops/nwprod/lib/w3nco/v2.0.6/intel/libw3nco_v2.0.6_8.a(summary.o)
threads_in_flight_mutex
                    0x28              /opt/intel/composer_xe_2015.3.187/compiler/lib/intel64/libifcore.a(for_aio.o)
MPI_Recv_data       0x340             /gpfs/hps/nco/ops/nwprod/lib/w3nco/v2.0.6/intel/libw3nco_v2.0.6_8.a(summary.o)
f_bytes             0x8               /gpfs/hps/nco/ops/nwprod/lib/w3nco/v2.0.6/intel/libw3nco_v2.0.6_8.a(summary.o)
wall_comm           0x8               /gpfs/hps/nco/ops/nwprod/lib/w3nco/v2.0.6/intel/libw3nco_v2.0.6_8.a(summary.o)
MPI_Op_free_data    0x340             /gpfs/hps/nco/ops/nwprod/lib/w3nco/v2.0.6/intel/libw3nco_v2.0.6_8.a(summary.o)
MPI_Comm_compare_data
                    0x340             /gpfs/hps/nco/ops/nwprod/lib/w3nco/v2.0.6/intel/libw3nco_v2.0.6_8.a(summary.o)
tcpu                0x8               /gpfs/hps/nco/ops/nwprod/lib/w3nco/v2.0.6/intel/libw3nco_v2.0.6_8.a(summary.o)
MPI_Error_string_data
                    0x340             /gpfs/hps/nco/ops/nwprod/lib/w3nco/v2.0.6/intel/libw3nco_v2.0.6_8.a(summary.o)
MPI_Comm_size_data  0x340             /gpfs/hps/nco/ops/nwprod/lib/w3nco/v2.0.6/intel/libw3nco_v2.0.6_8.a(summary.o)
MPI_Wtick_data      0x340             /gpfs/hps/nco/ops/nwprod/lib/w3nco/v2.0.6/intel/libw3nco_v2.0.6_8.a(summary.o)
MPI_Comm_create_data
                    0x340             /gpfs/hps/nco/ops/nwprod/lib/w3nco/v2.0.6/intel/libw3nco_v2.0.6_8.a(summary.o)
MPI_Waitany_data    0x340             /gpfs/hps/nco/ops/nwprod/lib/w3nco/v2.0.6/intel/libw3nco_v2.0.6_8.a(summary.o)
MPI_Topo_test_data  0x340             /gpfs/hps/nco/ops/nwprod/lib/w3nco/v2.0.6/intel/libw3nco_v2.0.6_8.a(summary.o)
MPI_Graphdims_get_data
                    0x340             /gpfs/hps/nco/ops/nwprod/lib/w3nco/v2.0.6/intel/libw3nco_v2.0.6_8.a(summary.o)
MPI_Unpack_data     0x340             /gpfs/hps/nco/ops/nwprod/lib/w3nco/v2.0.6/intel/libw3nco_v2.0.6_8.a(summary.o)
MPI_Send_init_data  0x340             /gpfs/hps/nco/ops/nwprod/lib/w3nco/v2.0.6/intel/libw3nco_v2.0.6_8.a(summary.o)
MPI_Errhandler_set_data
                    0x340             /gpfs/hps/nco/ops/nwprod/lib/w3nco/v2.0.6/intel/libw3nco_v2.0.6_8.a(summary.o)
MPI_Bsend_init_data
                    0x340             /gpfs/hps/nco/ops/nwprod/lib/w3nco/v2.0.6/intel/libw3nco_v2.0.6_8.a(summary.o)
MPI_Gather_data     0x340             /gpfs/hps/nco/ops/nwprod/lib/w3nco/v2.0.6/intel/libw3nco_v2.0.6_8.a(summary.o)
MPI_Sendrecv_replace_data
                    0x340             /gpfs/hps/nco/ops/nwprod/lib/w3nco/v2.0.6/intel/libw3nco_v2.0.6_8.a(summary.o)
trace_flag          0x4               /gpfs/hps/nco/ops/nwprod/lib/w3nco/v2.0.6/intel/libw3nco_v2.0.6_8.a(summary.o)
MPI_Irecv_data      0x340             /gpfs/hps/nco/ops/nwprod/lib/w3nco/v2.0.6/intel/libw3nco_v2.0.6_8.a(summary.o)
MPI_Cart_sub_data   0x340             /gpfs/hps/nco/ops/nwprod/lib/w3nco/v2.0.6/intel/libw3nco_v2.0.6_8.a(summary.o)
for__l_argc         0x4               /opt/intel/composer_xe_2015.3.187/compiler/lib/intel64/libifcore.a(for_init.o)
MPI_Group_incl_data
                    0x340             /gpfs/hps/nco/ops/nwprod/lib/w3nco/v2.0.6/intel/libw3nco_v2.0.6_8.a(summary.o)
MPI_Cart_get_data   0x340             /gpfs/hps/nco/ops/nwprod/lib/w3nco/v2.0.6/intel/libw3nco_v2.0.6_8.a(summary.o)
MPI_Graph_neighbors_count_data
                    0x340             /gpfs/hps/nco/ops/nwprod/lib/w3nco/v2.0.6/intel/libw3nco_v2.0.6_8.a(summary.o)
MPI_Comm_free_data  0x340             /gpfs/hps/nco/ops/nwprod/lib/w3nco/v2.0.6/intel/libw3nco_v2.0.6_8.a(summary.o)
MPI_Keyval_create_data
                    0x340             /gpfs/hps/nco/ops/nwprod/lib/w3nco/v2.0.6/intel/libw3nco_v2.0.6_8.a(summary.o)
MPI_Buffer_detach_data
                    0x340             /gpfs/hps/nco/ops/nwprod/lib/w3nco/v2.0.6/intel/libw3nco_v2.0.6_8.a(summary.o)
MPI_Intercomm_merge_data
                    0x340             /gpfs/hps/nco/ops/nwprod/lib/w3nco/v2.0.6/intel/libw3nco_v2.0.6_8.a(summary.o)
MPI_Issend_data     0x340             /gpfs/hps/nco/ops/nwprod/lib/w3nco/v2.0.6/intel/libw3nco_v2.0.6_8.a(summary.o)
MPI_Attr_put_data   0x340             /gpfs/hps/nco/ops/nwprod/lib/w3nco/v2.0.6/intel/libw3nco_v2.0.6_8.a(summary.o)
MPI_Graph_get_data  0x340             /gpfs/hps/nco/ops/nwprod/lib/w3nco/v2.0.6/intel/libw3nco_v2.0.6_8.a(summary.o)
MPI_Allreduce_data  0x340             /gpfs/hps/nco/ops/nwprod/lib/w3nco/v2.0.6/intel/libw3nco_v2.0.6_8.a(summary.o)
MPI_Type_extent_data
                    0x340             /gpfs/hps/nco/ops/nwprod/lib/w3nco/v2.0.6/intel/libw3nco_v2.0.6_8.a(summary.o)
MPI_Initialized_data
                    0x340             /gpfs/hps/nco/ops/nwprod/lib/w3nco/v2.0.6/intel/libw3nco_v2.0.6_8.a(summary.o)
MPI_Comm_rank_data  0x340             /gpfs/hps/nco/ops/nwprod/lib/w3nco/v2.0.6/intel/libw3nco_v2.0.6_8.a(summary.o)
MPI_Bsend_data      0x340             /gpfs/hps/nco/ops/nwprod/lib/w3nco/v2.0.6/intel/libw3nco_v2.0.6_8.a(summary.o)
MPI_Type_contiguous_data
                    0x340             /gpfs/hps/nco/ops/nwprod/lib/w3nco/v2.0.6/intel/libw3nco_v2.0.6_8.a(summary.o)
MPI_Attr_get_data   0x340             /gpfs/hps/nco/ops/nwprod/lib/w3nco/v2.0.6/intel/libw3nco_v2.0.6_8.a(summary.o)
MPI_Comm_test_inter_data
                    0x340             /gpfs/hps/nco/ops/nwprod/lib/w3nco/v2.0.6/intel/libw3nco_v2.0.6_8.a(summary.o)
MPI_Group_rank_data
                    0x340             /gpfs/hps/nco/ops/nwprod/lib/w3nco/v2.0.6/intel/libw3nco_v2.0.6_8.a(summary.o)
MPI_Comm_dup_data   0x340             /gpfs/hps/nco/ops/nwprod/lib/w3nco/v2.0.6/intel/libw3nco_v2.0.6_8.a(summary.o)
MPI_Allgather_data  0x340             /gpfs/hps/nco/ops/nwprod/lib/w3nco/v2.0.6/intel/libw3nco_v2.0.6_8.a(summary.o)
start_wall          0x8               /gpfs/hps/nco/ops/nwprod/lib/w3nco/v2.0.6/intel/libw3nco_v2.0.6_8.a(summary.o)
MPI_Cartdim_get_data
                    0x340             /gpfs/hps/nco/ops/nwprod/lib/w3nco/v2.0.6/intel/libw3nco_v2.0.6_8.a(summary.o)
MPI_Intercomm_create_data
                    0x340             /gpfs/hps/nco/ops/nwprod/lib/w3nco/v2.0.6/intel/libw3nco_v2.0.6_8.a(summary.o)
MPI_Rsend_init_data
                    0x340             /gpfs/hps/nco/ops/nwprod/lib/w3nco/v2.0.6/intel/libw3nco_v2.0.6_8.a(summary.o)
MPI_Buffer_attach_data
                    0x340             /gpfs/hps/nco/ops/nwprod/lib/w3nco/v2.0.6/intel/libw3nco_v2.0.6_8.a(summary.o)
MPI_Group_free_data
                    0x340             /gpfs/hps/nco/ops/nwprod/lib/w3nco/v2.0.6/intel/libw3nco_v2.0.6_8.a(summary.o)
MPI_Cart_create_data
                    0x340             /gpfs/hps/nco/ops/nwprod/lib/w3nco/v2.0.6/intel/libw3nco_v2.0.6_8.a(summary.o)
mypid               0x4               /gpfs/hps/nco/ops/nwprod/lib/w3nco/v2.0.6/intel/libw3nco_v2.0.6_8.a(summary.o)
tot_wall            0x8               /gpfs/hps/nco/ops/nwprod/lib/w3nco/v2.0.6/intel/libw3nco_v2.0.6_8.a(summary.o)
MPI_Scatter_data    0x340             /gpfs/hps/nco/ops/nwprod/lib/w3nco/v2.0.6/intel/libw3nco_v2.0.6_8.a(summary.o)
message_catalog     0x8               /opt/intel/composer_xe_2015.3.187/compiler/lib/intel64/libifcore.a(for_diags_intel.o)
for__aio_lub_table  0x400             /opt/intel/composer_xe_2015.3.187/compiler/lib/intel64/libifcore.a(for_aio.o)
MPI_Testany_data    0x340             /gpfs/hps/nco/ops/nwprod/lib/w3nco/v2.0.6/intel/libw3nco_v2.0.6_8.a(summary.o)
MPI_Scatterv_data   0x340             /gpfs/hps/nco/ops/nwprod/lib/w3nco/v2.0.6/intel/libw3nco_v2.0.6_8.a(summary.o)
MPI_Testall_data    0x340             /gpfs/hps/nco/ops/nwprod/lib/w3nco/v2.0.6/intel/libw3nco_v2.0.6_8.a(summary.o)
MPI_Test_cancelled_data
                    0x340             /gpfs/hps/nco/ops/nwprod/lib/w3nco/v2.0.6/intel/libw3nco_v2.0.6_8.a(summary.o)
MPI_Barrier_data    0x340             /gpfs/hps/nco/ops/nwprod/lib/w3nco/v2.0.6/intel/libw3nco_v2.0.6_8.a(summary.o)
MPI_Get_elements_data
                    0x340             /gpfs/hps/nco/ops/nwprod/lib/w3nco/v2.0.6/intel/libw3nco_v2.0.6_8.a(summary.o)
MPI_Comm_split_data
                    0x340             /gpfs/hps/nco/ops/nwprod/lib/w3nco/v2.0.6/intel/libw3nco_v2.0.6_8.a(summary.o)
MPI_Pack_size_data  0x340             /gpfs/hps/nco/ops/nwprod/lib/w3nco/v2.0.6/intel/libw3nco_v2.0.6_8.a(summary.o)
MPI_Ssend_data      0x340             /gpfs/hps/nco/ops/nwprod/lib/w3nco/v2.0.6/intel/libw3nco_v2.0.6_8.a(summary.o)
MPI_Wait_data       0x340             /gpfs/hps/nco/ops/nwprod/lib/w3nco/v2.0.6/intel/libw3nco_v2.0.6_8.a(summary.o)
MPI_Alltoallv_data  0x340             /gpfs/hps/nco/ops/nwprod/lib/w3nco/v2.0.6/intel/libw3nco_v2.0.6_8.a(summary.o)
MPI_Graph_neighbors_data
                    0x340             /gpfs/hps/nco/ops/nwprod/lib/w3nco/v2.0.6/intel/libw3nco_v2.0.6_8.a(summary.o)
MPI_Type_free_data  0x340             /gpfs/hps/nco/ops/nwprod/lib/w3nco/v2.0.6/intel/libw3nco_v2.0.6_8.a(summary.o)
for__a_argv         0x8               /opt/intel/composer_xe_2015.3.187/compiler/lib/intel64/libifcore.a(for_init.o)
numtask             0x4               /gpfs/hps/nco/ops/nwprod/lib/w3nco/v2.0.6/intel/libw3nco_v2.0.6_8.a(summary.o)
MPI_Get_processor_name_data
                    0x340             /gpfs/hps/nco/ops/nwprod/lib/w3nco/v2.0.6/intel/libw3nco_v2.0.6_8.a(summary.o)

Discarded input sections

 .note.GNU-stack
                0x0000000000000000        0x0 /usr/lib/../lib64/crt1.o
 .note.GNU-stack
                0x0000000000000000        0x0 /usr/lib/../lib64/crti.o
 .note.GNU-stack
                0x0000000000000000        0x0 /opt/gcc/4.9.2/snos/lib/gcc/x86_64-suse-linux/4.9.2/crtbegin.o
 .note.GNU-stack
                0x0000000000000000        0x0 /opt/intel/composer_xe_2015.3.187/compiler/lib/intel64/for_main.o
 .note.GNU-stack
                0x0000000000000000        0x0 fxcompoz.o
 .note.GNU-stack
                0x0000000000000000        0x0 close99.o
 .note.GNU-stack
                0x0000000000000000        0x0 fxcompozlib.o
 .note.GNU-stack
                0x0000000000000000        0x0 open99.o
 .note.GNU-stack
                0x0000000000000000        0x0 rd1byt99.o
 .note.GNU-stack
                0x0000000000000000        0x0 reposi99.o
 .note.GNU-stack
                0x0000000000000000        0x0 rewind99.o
 .note.GNU-stack
                0x0000000000000000        0x0 wheren99.o
 .note.GNU-stack
                0x0000000000000000        0x0 /gpfs/hps/emc/global/noscrub/Boi.Vuong/lib/graphics/v2.0.0/intel/libgph_v2.0.0_8.a(bin2ch.o)
 .note.GNU-stack
                0x0000000000000000        0x0 /gpfs/hps/emc/global/noscrub/Boi.Vuong/lib/graphics/v2.0.0/intel/libgph_v2.0.0_8.a(cdc2asc.o)
 .note.GNU-stack
                0x0000000000000000        0x0 /gpfs/hps/emc/global/noscrub/Boi.Vuong/lib/graphics/v2.0.0/intel/libgph_v2.0.0_8.a(consol.o)
 .note.GNU-stack
                0x0000000000000000        0x0 /gpfs/hps/emc/global/noscrub/Boi.Vuong/lib/graphics/v2.0.0/intel/libgph_v2.0.0_8.a(xasc2asc.o)
 .note.GNU-stack
                0x0000000000000000        0x0 /gpfs/hps/emc/global/noscrub/Boi.Vuong/lib/graphics/v2.0.0/intel/libutil_v2.0.0.a(sbytesccs.o)
 .note.GNU-stack
                0x0000000000000000        0x0 /gpfs/hps/emc/global/noscrub/Boi.Vuong/lib/graphics/v2.0.0/intel/libutil_v2.0.0.a(swap_bytes_in_place.o)
 .note.GNU-stack
                0x0000000000000000        0x0 /gpfs/hps/nco/ops/nwprod/lib/w3emc/v2.2.0/intel/libw3emc_v2.2.0_8.a(mova2i.o)
 .note.GNU-stack
                0x0000000000000000        0x0 /gpfs/hps/nco/ops/nwprod/lib/w3nco/v2.0.6/intel/libw3nco_v2.0.6_8.a(errexit.o)
 .note.GNU-stack
                0x0000000000000000        0x0 /gpfs/hps/nco/ops/nwprod/lib/w3nco/v2.0.6/intel/libw3nco_v2.0.6_8.a(gbytes.o)
 .note.GNU-stack
                0x0000000000000000        0x0 /gpfs/hps/nco/ops/nwprod/lib/w3nco/v2.0.6/intel/libw3nco_v2.0.6_8.a(w3as00.o)
 .note.GNU-stack
                0x0000000000000000        0x0 /gpfs/hps/nco/ops/nwprod/lib/w3nco/v2.0.6/intel/libw3nco_v2.0.6_8.a(w3fi01.o)
 .note.GNU-stack
                0x0000000000000000        0x0 /gpfs/hps/nco/ops/nwprod/lib/w3nco/v2.0.6/intel/libw3nco_v2.0.6_8.a(w3locdat.o)
 .note.GNU-stack
                0x0000000000000000        0x0 /gpfs/hps/nco/ops/nwprod/lib/w3nco/v2.0.6/intel/libw3nco_v2.0.6_8.a(w3tagb.o)
 .note.GNU-stack
                0x0000000000000000        0x0 /gpfs/hps/nco/ops/nwprod/lib/w3nco/v2.0.6/intel/libw3nco_v2.0.6_8.a(w3utcdat.o)
 .note.GNU-stack
                0x0000000000000000        0x0 /gpfs/hps/nco/ops/nwprod/lib/w3nco/v2.0.6/intel/libw3nco_v2.0.6_8.a(xmovex.o)
 .note.GNU-stack
                0x0000000000000000        0x0 /gpfs/hps/nco/ops/nwprod/lib/w3nco/v2.0.6/intel/libw3nco_v2.0.6_8.a(summary.o)
 .note.GNU-stack
                0x0000000000000000        0x0 /gpfs/hps/nco/ops/nwprod/lib/w3nco/v2.0.6/intel/libw3nco_v2.0.6_8.a(iw3jdn.o)
 .note.GNU-stack
                0x0000000000000000        0x0 /gpfs/hps/nco/ops/nwprod/lib/w3nco/v2.0.6/intel/libw3nco_v2.0.6_8.a(w3doxdat.o)
 .note.GNU-stack
                0x0000000000000000        0x0 /gpfs/hps/nco/ops/nwprod/lib/w3nco/v2.0.6/intel/libw3nco_v2.0.6_8.a(w3fs26.o)
 .note.GNU-stack
                0x0000000000000000        0x0 /opt/intel/composer_xe_2015.3.187/compiler/lib/intel64/libifport.a(getenv.o)
 .note.GNU-stack
                0x0000000000000000        0x0 /opt/intel/composer_xe_2015.3.187/compiler/lib/intel64/libifcore.a(for_diags_intel.o)
 .note.GNU-stack
                0x0000000000000000        0x0 /opt/intel/composer_xe_2015.3.187/compiler/lib/intel64/libifcore.a(for_endfile.o)
 .note.GNU-stack
                0x0000000000000000        0x0 /opt/intel/composer_xe_2015.3.187/compiler/lib/intel64/libifcore.a(for_exit.o)
 .note.GNU-stack
                0x0000000000000000        0x0 /opt/intel/composer_xe_2015.3.187/compiler/lib/intel64/libifcore.a(for_exit_handler.o)
 .note.GNU-stack
                0x0000000000000000        0x0 /opt/intel/composer_xe_2015.3.187/compiler/lib/intel64/libifcore.a(for_getarg.o)
 .note.GNU-stack
                0x0000000000000000        0x0 /opt/intel/composer_xe_2015.3.187/compiler/lib/intel64/libifcore.a(for_init.o)
 .note.GNU-stack
                0x0000000000000000        0x0 /opt/intel/composer_xe_2015.3.187/compiler/lib/intel64/libifcore.a(for_io_util.o)
 .note.GNU-stack
                0x0000000000000000        0x0 /opt/intel/composer_xe_2015.3.187/compiler/lib/intel64/libifcore.a(for_lub_mgt.o)
 .note.GNU-stack
                0x0000000000000000        0x0 /opt/intel/composer_xe_2015.3.187/compiler/lib/intel64/libifcore.a(for_open.o)
 .note.GNU-stack
                0x0000000000000000        0x0 /opt/intel/composer_xe_2015.3.187/compiler/lib/intel64/libifcore.a(for_preconnected_units_init.o)
 .note.GNU-stack
                0x0000000000000000        0x0 /opt/intel/composer_xe_2015.3.187/compiler/lib/intel64/libifcore.a(for_put.o)
 .note.GNU-stack
                0x0000000000000000        0x0 /opt/intel/composer_xe_2015.3.187/compiler/lib/intel64/libifcore.a(for_rdir.o)
 .note.GNU-stack
                0x0000000000000000        0x0 /opt/intel/composer_xe_2015.3.187/compiler/lib/intel64/libifcore.a(for_reentrancy.o)
 .note.GNU-stack
                0x0000000000000000        0x0 /opt/intel/composer_xe_2015.3.187/compiler/lib/intel64/libifcore.a(for_rewind.o)
 .note.GNU-stack
                0x0000000000000000        0x0 /opt/intel/composer_xe_2015.3.187/compiler/lib/intel64/libifcore.a(for_rint_fmt.o)
 .note.GNU-stack
                0x0000000000000000        0x0 /opt/intel/composer_xe_2015.3.187/compiler/lib/intel64/libifcore.a(for_secnds.o)
 .note.GNU-stack
                0x0000000000000000        0x0 /opt/intel/composer_xe_2015.3.187/compiler/lib/intel64/libifcore.a(for_stop.o)
 .note.GNU-stack
                0x0000000000000000        0x0 /opt/intel/composer_xe_2015.3.187/compiler/lib/intel64/libifcore.a(for_vm.o)
 .note.GNU-stack
                0x0000000000000000        0x0 /opt/intel/composer_xe_2015.3.187/compiler/lib/intel64/libifcore.a(for_wdir.o)
 .note.GNU-stack
                0x0000000000000000        0x0 /opt/intel/composer_xe_2015.3.187/compiler/lib/intel64/libifcore.a(for_wint_fmt.o)
 .note.GNU-stack
                0x0000000000000000        0x0 /opt/intel/composer_xe_2015.3.187/compiler/lib/intel64/libifcore.a(for_wseq.o)
 .note.GNU-stack
                0x0000000000000000        0x0 /opt/intel/composer_xe_2015.3.187/compiler/lib/intel64/libifcore.a(for_wseq_fmt.o)
 .note.GNU-stack
                0x0000000000000000        0x0 /opt/intel/composer_xe_2015.3.187/compiler/lib/intel64/libifcore.a(for_wseq_lis.o)
 .note.GNU-stack
                0x0000000000000000        0x0 /opt/intel/composer_xe_2015.3.187/compiler/lib/intel64/libifcore.a(for_90_date.o)
 .note.GNU-stack
                0x0000000000000000        0x0 /opt/intel/composer_xe_2015.3.187/compiler/lib/intel64/libifcore.a(for_90_index.o)
 .note.GNU-stack
                0x0000000000000000        0x0 /opt/intel/composer_xe_2015.3.187/compiler/lib/intel64/libifcore.a(for_90_trim.o)
 .note.GNU-stack
                0x0000000000000000        0x0 /opt/intel/composer_xe_2015.3.187/compiler/lib/intel64/libifcore.a(for_f90str.o)
 .note.GNU-stack
                0x0000000000000000        0x0 /opt/intel/composer_xe_2015.3.187/compiler/lib/intel64/libifcore.a(tbk_traceback.o)
 .note.GNU-stack
                0x0000000000000000        0x0 /opt/intel/composer_xe_2015.3.187/compiler/lib/intel64/libifcore.a(for_aio.o)
 .note.GNU-stack
                0x0000000000000000        0x0 /opt/intel/composer_xe_2015.3.187/compiler/lib/intel64/libifcore.a(for_open_proc.o)
 .note.GNU-stack
                0x0000000000000000        0x0 /opt/intel/composer_xe_2015.3.187/compiler/lib/intel64/libifcore.a(for_aio_wrap.o)
 .note.GNU-stack
                0x0000000000000000        0x0 /opt/intel/composer_xe_2015.3.187/compiler/lib/intel64/libifcore.a(cvt_text_to_int.o)
 .note.GNU-stack
                0x0000000000000000        0x0 /opt/intel/composer_xe_2015.3.187/compiler/lib/intel64/libifcore.a(cvt_vax_f.o)
 .note.GNU-stack
                0x0000000000000000        0x0 /opt/intel/composer_xe_2015.3.187/compiler/lib/intel64/libifcore.a(cvt_vax_d.o)
 .note.GNU-stack
                0x0000000000000000        0x0 /opt/intel/composer_xe_2015.3.187/compiler/lib/intel64/libifcore.a(cvt_vax_g.o)
 .note.GNU-stack
                0x0000000000000000        0x0 /opt/intel/composer_xe_2015.3.187/compiler/lib/intel64/libifcore.a(cvt_cray.o)
 .note.GNU-stack
                0x0000000000000000        0x0 /opt/intel/composer_xe_2015.3.187/compiler/lib/intel64/libifcore.a(cvt_ibm_short.o)
 .note.GNU-stack
                0x0000000000000000        0x0 /opt/intel/composer_xe_2015.3.187/compiler/lib/intel64/libifcore.a(cvt_ibm_long.o)
 .note.GNU-stack
                0x0000000000000000        0x0 /opt/intel/composer_xe_2015.3.187/compiler/lib/intel64/libifcore.a(cvt_ieee_double.o)
 .note.GNU-stack
                0x0000000000000000        0x0 /opt/intel/composer_xe_2015.3.187/compiler/lib/intel64/libifcore.a(cvt_ieee_single.o)
 .note.GNU-stack
                0x0000000000000000        0x0 /opt/intel/composer_xe_2015.3.187/compiler/lib/intel64/libifcore.a(for_close.o)
 .note.GNU-stack
                0x0000000000000000        0x0 /opt/intel/composer_xe_2015.3.187/compiler/lib/intel64/libifcore.a(for_close_proc.o)
 .note.GNU-stack
                0x0000000000000000        0x0 /opt/intel/composer_xe_2015.3.187/compiler/lib/intel64/libifcore.a(for_default_io_sizes_env_init.o)
 .note.GNU-stack
                0x0000000000000000        0x0 /opt/intel/composer_xe_2015.3.187/compiler/lib/intel64/libifcore.a(for_desc_item.o)
 .note.GNU-stack
                0x0000000000000000        0x0 /opt/intel/composer_xe_2015.3.187/compiler/lib/intel64/libifcore.a(for_fmt_comp.o)
 .note.GNU-stack
                0x0000000000000000        0x0 /opt/intel/composer_xe_2015.3.187/compiler/lib/intel64/libifcore.a(for_fmt_val.o)
 .note.GNU-stack
                0x0000000000000000        0x0 /opt/intel/composer_xe_2015.3.187/compiler/lib/intel64/libifcore.a(for_get.o)
 .note.GNU-stack
                0x0000000000000000        0x0 /opt/intel/composer_xe_2015.3.187/compiler/lib/intel64/libifcore.a(for_index.o)
 .note.GNU-stack
                0x0000000000000000        0x0 /opt/intel/composer_xe_2015.3.187/compiler/lib/intel64/libifcore.a(for_intrp_fmt.o)
 .note.GNU-stack
                0x0000000000000000        0x0 /opt/intel/composer_xe_2015.3.187/compiler/lib/intel64/libifcore.a(for_ldir_wfs.o)
 .note.GNU-stack
                0x0000000000000000        0x0 /opt/intel/composer_xe_2015.3.187/compiler/lib/intel64/libifcore.a(for_need_lf.o)
 .note.GNU-stack
                0x0000000000000000        0x0 /opt/intel/composer_xe_2015.3.187/compiler/lib/intel64/libifcore.a(cvt__globals.o)
 .note.GNU-stack
                0x0000000000000000        0x0 /opt/intel/composer_xe_2015.3.187/compiler/lib/intel64/libifcore.a(cvt_int_to_text.o)
 .note.GNU-stack
                0x0000000000000000        0x0 /opt/intel/composer_xe_2015.3.187/compiler/lib/intel64/libifcore.a(cvt_data_to_text.o)
 .note.GNU-stack
                0x0000000000000000        0x0 /opt/intel/composer_xe_2015.3.187/compiler/lib/intel64/libifcore.a(cvt_log_to_text.o)
 .note.GNU-stack
                0x0000000000000000        0x0 /opt/intel/composer_xe_2015.3.187/compiler/lib/intel64/libifcore.a(cvt_text_to_data.o)
 .note.GNU-stack
                0x0000000000000000        0x0 /opt/intel/composer_xe_2015.3.187/compiler/lib/intel64/libifcore.a(cvt_text_to_log.o)
 .note.GNU-stack
                0x0000000000000000        0x0 /opt/intel/composer_xe_2015.3.187/compiler/lib/intel64/libifcore.a(cvt_cvtas_t.o)
 .note.GNU-stack
                0x0000000000000000        0x0 /opt/intel/composer_xe_2015.3.187/compiler/lib/intel64/libifcore.a(cvt_cvtas_s.o)
 .note.GNU-stack
                0x0000000000000000        0x0 /opt/intel/composer_xe_2015.3.187/compiler/lib/intel64/libifcore.a(cvt_cvtas_x.o)
 .note.GNU-stack
                0x0000000000000000        0x0 /opt/intel/composer_xe_2015.3.187/compiler/lib/intel64/libifcore.a(cvtas_a_to_s.o)
 .note.GNU-stack
                0x0000000000000000        0x0 /opt/intel/composer_xe_2015.3.187/compiler/lib/intel64/libifcore.a(cvtas_a_to_t.o)
 .note.GNU-stack
                0x0000000000000000        0x0 /opt/intel/composer_xe_2015.3.187/compiler/lib/intel64/libifcore.a(cvtas_s_to_a.o)
 .note.GNU-stack
                0x0000000000000000        0x0 /opt/intel/composer_xe_2015.3.187/compiler/lib/intel64/libifcore.a(cvtas_t_to_a.o)
 .note.GNU-stack
                0x0000000000000000        0x0 /opt/intel/composer_xe_2015.3.187/compiler/lib/intel64/libifcore.a(cvtas_nan_s.o)
 .note.GNU-stack
                0x0000000000000000        0x0 /opt/intel/composer_xe_2015.3.187/compiler/lib/intel64/libifcore.a(cvtas_nan_t.o)
 .note.GNU-stack
                0x0000000000000000        0x0 /opt/intel/composer_xe_2015.3.187/compiler/lib/intel64/libifcore.a(cvtas_a_to_x.o)
 .note.GNU-stack
                0x0000000000000000        0x0 /opt/intel/composer_xe_2015.3.187/compiler/lib/intel64/libifcore.a(cvtas_x_to_a.o)
 .note.GNU-stack
                0x0000000000000000        0x0 /opt/intel/composer_xe_2015.3.187/compiler/lib/intel64/libifcore.a(cvtas_nan_x.o)
 .note.GNU-stack
                0x0000000000000000        0x0 /opt/intel/composer_xe_2015.3.187/compiler/lib/intel64/libifcore.a(cvtas_globals.o)
 .note.GNU-stack
                0x0000000000000000        0x0 /opt/intel/composer_xe_2015.3.187/compiler/lib/intel64/libifcore.a(cvtas_pow_ten_53.o)
 .note.GNU-stack
                0x0000000000000000        0x0 /opt/intel/composer_xe_2015.3.187/compiler/lib/intel64/libifcore.a(cvtas_pow_ten_64.o)
 .note.GNU-stack
                0x0000000000000000        0x0 /opt/intel/composer_xe_2015.3.187/compiler/lib/intel64/libifcore.a(cvtas_pow_ten_128.o)
 .note.GNU-stack
                0x0000000000000000        0x0 /opt/intel/composer_xe_2015.3.187/compiler/lib/intel64/libimf.a(fetestexcept.o)
 .note.GNU-stack
                0x0000000000000000        0x0 /opt/intel/composer_xe_2015.3.187/compiler/lib/intel64/libimf.a(log_stub.o)
 .note.GNU-stack
                0x0000000000000000        0x0 /opt/intel/composer_xe_2015.3.187/compiler/lib/intel64/libimf.a(log_ct.o)
 .note.GNU-stack
                0x0000000000000000        0x0 /opt/intel/composer_xe_2015.3.187/compiler/lib/intel64/libimf.a(log_gen.o)
 .note.GNU-stack
                0x0000000000000000        0x0 /opt/intel/composer_xe_2015.3.187/compiler/lib/intel64/libimf.a(libm_error.o)
 .note.GNU-stack
                0x0000000000000000        0x0 /opt/intel/composer_xe_2015.3.187/compiler/lib/intel64/libimf.a(matherrf.o)
 .note.GNU-stack
                0x0000000000000000        0x0 /opt/intel/composer_xe_2015.3.187/compiler/lib/intel64/libimf.a(matherrl.o)
 .note.GNU-stack
                0x0000000000000000        0x0 /opt/intel/composer_xe_2015.3.187/compiler/lib/intel64/libimf.a(matherr.o)
 .note.GNU-stack
                0x0000000000000000        0x0 /opt/intel/composer_xe_2015.3.187/compiler/lib/intel64/libirc.a(ints2q.o)
 .note.GNU-stack
                0x0000000000000000        0x0 /opt/intel/composer_xe_2015.3.187/compiler/lib/intel64/libirc.a(qcomp.o)
 .note.GNU-stack
                0x0000000000000000        0x0 /opt/intel/composer_xe_2015.3.187/compiler/lib/intel64/libirc.a(fp2q.o)
 .note.GNU-stack
                0x0000000000000000        0x0 /opt/intel/composer_xe_2015.3.187/compiler/lib/intel64/libirc.a(q2fp.o)
 .note.GNU-stack
                0x0000000000000000        0x0 /opt/intel/composer_xe_2015.3.187/compiler/lib/intel64/libirc.a(tbk_display.o)
 .note.GNU-stack
                0x0000000000000000        0x0 /opt/intel/composer_xe_2015.3.187/compiler/lib/intel64/libirc.a(tbk_backtrace.o)
 .note.GNU-stack
                0x0000000000000000        0x0 /opt/intel/composer_xe_2015.3.187/compiler/lib/intel64/libirc.a(cpu_feature_disp.o)
 .note.GNU-stack
                0x0000000000000000        0x0 /opt/intel/composer_xe_2015.3.187/compiler/lib/intel64/libirc.a(ia32_memcmp.o)
 .note.GNU-stack
                0x0000000000000000        0x0 /opt/intel/composer_xe_2015.3.187/compiler/lib/intel64/libirc.a(fastmemcpy.o)
 .note.GNU-stack
                0x0000000000000000        0x0 /opt/intel/composer_xe_2015.3.187/compiler/lib/intel64/libirc.a(fastmemmove.o)
 .note.GNU-stack
                0x0000000000000000        0x0 /opt/intel/composer_xe_2015.3.187/compiler/lib/intel64/libirc.a(fastmemset.o)
 .note.GNU-stack
                0x0000000000000000        0x0 /opt/intel/composer_xe_2015.3.187/compiler/lib/intel64/libirc.a(new_proc_init.o)
 .note.GNU-stack
                0x0000000000000000        0x0 /opt/intel/composer_xe_2015.3.187/compiler/lib/intel64/libirc.a(ia32_addsubq.o)
 .note.GNU-stack
                0x0000000000000000        0x0 /opt/intel/composer_xe_2015.3.187/compiler/lib/intel64/libirc.a(ia32_divq.o)
 .note.GNU-stack
                0x0000000000000000        0x0 /opt/intel/composer_xe_2015.3.187/compiler/lib/intel64/libirc.a(sse2_strcpy.o)
 .note.GNU-stack
                0x0000000000000000        0x0 /opt/intel/composer_xe_2015.3.187/compiler/lib/intel64/libirc.a(sse2_strncpy.o)
 .note.GNU-stack
                0x0000000000000000        0x0 /opt/intel/composer_xe_2015.3.187/compiler/lib/intel64/libirc.a(sse2_strlen.o)
 .note.GNU-stack
                0x0000000000000000        0x0 /opt/intel/composer_xe_2015.3.187/compiler/lib/intel64/libirc.a(sse2_strchr.o)
 .note.GNU-stack
                0x0000000000000000        0x0 /opt/intel/composer_xe_2015.3.187/compiler/lib/intel64/libirc.a(sse2_strncmp.o)
 .note.GNU-stack
                0x0000000000000000        0x0 /opt/intel/composer_xe_2015.3.187/compiler/lib/intel64/libirc.a(sse2_strcat.o)
 .note.GNU-stack
                0x0000000000000000        0x0 /opt/intel/composer_xe_2015.3.187/compiler/lib/intel64/libirc.a(sse2_strncat.o)
 .note.GNU-stack
                0x0000000000000000        0x0 /opt/intel/composer_xe_2015.3.187/compiler/lib/intel64/libirc.a(fast_memcpy_pp.o)
 .note.GNU-stack
                0x0000000000000000        0x0 /opt/intel/composer_xe_2015.3.187/compiler/lib/intel64/libirc.a(fast_memset_pp.o)
 .note.GNU-stack
                0x0000000000000000        0x0 /opt/intel/composer_xe_2015.3.187/compiler/lib/intel64/libirc.a(intel_ssse3_memcpy.o)
 .note.GNU-stack
                0x0000000000000000        0x0 /opt/intel/composer_xe_2015.3.187/compiler/lib/intel64/libirc.a(intel_ssse3_rep_memcpy.o)
 .note.GNU-stack
                0x0000000000000000        0x0 /opt/intel/composer_xe_2015.3.187/compiler/lib/intel64/libirc.a(intel_ssse3_memmove.o)
 .note.GNU-stack
                0x0000000000000000        0x0 /opt/intel/composer_xe_2015.3.187/compiler/lib/intel64/libirc.a(intel_ssse3_rep_memmove.o)
 .note.GNU-stack
                0x0000000000000000        0x0 /opt/intel/composer_xe_2015.3.187/compiler/lib/intel64/libirc.a(irc_msg_support.o)
 .note.GNU-stack
                0x0000000000000000        0x0 /opt/intel/composer_xe_2015.3.187/compiler/lib/intel64/libirc.a(fast_mem_ops.o)
 .note.GNU-stack
                0x0000000000000000        0x0 /opt/intel/composer_xe_2015.3.187/compiler/lib/intel64/libirc.a(proc_init_utils.o)
 .note.GNU-stack
                0x0000000000000000        0x0 /usr/lib64/libc_nonshared.a(elf-init.oS)
 .note.GNU-stack
                0x0000000000000000        0x0 /opt/gcc/4.9.2/snos/lib/gcc/x86_64-suse-linux/4.9.2/crtend.o
 .note.GNU-stack
                0x0000000000000000        0x0 /usr/lib/../lib64/crtn.o

Memory Configuration

Name             Origin             Length             Attributes
*default*        0x0000000000000000 0xffffffffffffffff

Linker script and memory map

LOAD /usr/lib/../lib64/crt1.o
LOAD /usr/lib/../lib64/crti.o
LOAD /opt/gcc/4.9.2/snos/lib/gcc/x86_64-suse-linux/4.9.2/crtbegin.o
LOAD /opt/intel/composer_xe_2015.3.187/compiler/lib/intel64/for_main.o
LOAD fxcompoz.o
LOAD close99.o
LOAD fxcompozlib.o
LOAD open99.o
LOAD rd1byt99.o
LOAD reposi99.o
LOAD rewind99.o
LOAD wheren99.o
LOAD /gpfs/hps/emc/global/noscrub/Boi.Vuong/lib/graphics/v2.0.0/intel/libgph_v2.0.0_8.a
LOAD /gpfs/hps/emc/global/noscrub/Boi.Vuong/lib/graphics/v2.0.0/intel/libutil_v2.0.0.a
LOAD /gpfs/hps/nco/ops/nwprod/lib/ip/v2.0.0/intel/libip_v2.0.0_8.a
LOAD /gpfs/hps/nco/ops/nwprod/lib/sp/v2.0.2/intel/libsp_v2.0.2_8.a
LOAD /gpfs/hps/nco/ops/nwprod/lib/w3emc/v2.2.0/intel/libw3emc_v2.2.0_8.a
LOAD /gpfs/hps/nco/ops/nwprod/lib/w3nco/v2.0.6/intel/libw3nco_v2.0.6_8.a
LOAD /gpfs/hps/nco/ops/nwprod/lib/bacio/v2.0.1/intel/libbacio_v2.0.1_8.a
LOAD /opt/intel/composer_xe_2015.3.187/compiler/lib/intel64/libifport.a
LOAD /opt/intel/composer_xe_2015.3.187/compiler/lib/intel64/libifcore.a
LOAD /opt/intel/composer_xe_2015.3.187/compiler/lib/intel64/libimf.a
LOAD /opt/intel/composer_xe_2015.3.187/compiler/lib/intel64/libsvml.a
LOAD /usr/lib/../lib64/libm.so
LOAD /opt/intel/composer_xe_2015.3.187/compiler/lib/intel64/libipgo.a
LOAD /opt/intel/composer_xe_2015.3.187/compiler/lib/intel64/libirc.a
LOAD /usr/lib/../lib64/libpthread.so
START GROUP
LOAD /lib64/libpthread.so.0
LOAD /usr/lib64/libpthread_nonshared.a
END GROUP
LOAD /opt/intel/composer_xe_2015.3.187/compiler/lib/intel64/libsvml.a
LOAD /usr/lib/../lib64/libdl.so
LOAD /usr/lib/../lib64/libc.so
START GROUP
LOAD /lib64/libc.so.6
LOAD /usr/lib64/libc_nonshared.a
LOAD /lib64/ld-linux-x86-64.so.2
END GROUP
LOAD /opt/gcc/4.9.2/snos/lib/gcc/x86_64-suse-linux/4.9.2//libgcc.a
LOAD /opt/gcc/4.9.2/snos/lib/gcc/x86_64-suse-linux/4.9.2/../../../../lib64/libgcc_s.so
LOAD /opt/intel/composer_xe_2015.3.187/compiler/lib/intel64/libirc_s.a
LOAD /usr/lib/../lib64/libdl.so
LOAD /usr/lib/../lib64/libc.so
START GROUP
LOAD /lib64/libc.so.6
LOAD /usr/lib64/libc_nonshared.a
LOAD /lib64/ld-linux-x86-64.so.2
END GROUP
LOAD /opt/gcc/4.9.2/snos/lib/gcc/x86_64-suse-linux/4.9.2/crtend.o
LOAD /usr/lib/../lib64/crtn.o
                0x0000000000400000                PROVIDE (__executable_start, 0x400000)
                0x0000000000400238                . = (0x400000 + SIZEOF_HEADERS)

.interp         0x0000000000400238       0x1c
 *(.interp)
 .interp        0x0000000000400238       0x1c /usr/lib/../lib64/crt1.o

.note.ABI-tag   0x0000000000400254       0x20
 .note.ABI-tag  0x0000000000400254       0x20 /usr/lib/../lib64/crt1.o

.note.SuSE      0x0000000000400274       0x18
 .note.SuSE     0x0000000000400274       0x18 /usr/lib/../lib64/crt1.o

.note.gnu.build-id
                0x000000000040028c       0x24
 *(.note.gnu.build-id)
 .note.gnu.build-id
                0x000000000040028c       0x24 /usr/lib/../lib64/crt1.o

.hash           0x00000000004002b0      0x458
 *(.hash)
 .hash          0x00000000004002b0      0x458 /usr/lib/../lib64/crt1.o

.gnu.hash       0x0000000000400708      0x16c
 *(.gnu.hash)
 .gnu.hash      0x0000000000400708      0x16c /usr/lib/../lib64/crt1.o

.dynsym         0x0000000000400878      0xd98
 *(.dynsym)
 .dynsym        0x0000000000400878      0xd98 /usr/lib/../lib64/crt1.o

.dynstr         0x0000000000401610      0x6b6
 *(.dynstr)
 .dynstr        0x0000000000401610      0x6b6 /usr/lib/../lib64/crt1.o

.gnu.version    0x0000000000401cc6      0x122
 *(.gnu.version)
 .gnu.version   0x0000000000401cc6      0x122 /usr/lib/../lib64/crt1.o

.gnu.version_d  0x0000000000401de8        0x0
 *(.gnu.version_d)
 .gnu.version_d
                0x0000000000000000        0x0 /usr/lib/../lib64/crt1.o

.gnu.version_r  0x0000000000401de8       0xa0
 *(.gnu.version_r)
 .gnu.version_r
                0x0000000000401de8       0xa0 /usr/lib/../lib64/crt1.o

.rela.dyn       0x0000000000401e88      0x438
 *(.rela.init)
 *(.rela.text .rela.text.* .rela.gnu.linkonce.t.*)
 .rela.text     0x0000000000000000        0x0 /usr/lib/../lib64/crt1.o
 .rela.text.ssse3
                0x0000000000000000        0x0 /usr/lib/../lib64/crt1.o
 *(.rela.fini)
 *(.rela.rodata .rela.rodata.* .rela.gnu.linkonce.r.*)
 .rela.rodata   0x0000000000000000        0x0 /usr/lib/../lib64/crt1.o
 *(.rela.data .rela.data.* .rela.gnu.linkonce.d.*)
 .rela.data     0x0000000000000000        0x0 /usr/lib/../lib64/crt1.o
 *(.rela.tdata .rela.tdata.* .rela.gnu.linkonce.td.*)
 *(.rela.tbss .rela.tbss.* .rela.gnu.linkonce.tb.*)
 *(.rela.ctors)
 *(.rela.dtors)
 *(.rela.got)
 .rela.got      0x0000000000401e88      0x3f0 /usr/lib/../lib64/crt1.o
 *(.rela.bss .rela.bss.* .rela.gnu.linkonce.b.*)
 .rela.bss      0x0000000000402278       0x48 /usr/lib/../lib64/crt1.o
 *(.rela.ldata .rela.ldata.* .rela.gnu.linkonce.l.*)
 *(.rela.lbss .rela.lbss.* .rela.gnu.linkonce.lb.*)
 *(.rela.lrodata .rela.lrodata.* .rela.gnu.linkonce.lr.*)
 *(.rela.ifunc)

.rela.plt       0x00000000004022c0      0x930
 *(.rela.plt)
 .rela.plt      0x00000000004022c0      0x930 /usr/lib/../lib64/crt1.o
                0x0000000000402bf0                PROVIDE (__rela_iplt_start, .)
 *(.rela.iplt)
 .rela.iplt     0x0000000000000000        0x0 /usr/lib/../lib64/crt1.o
                0x0000000000402bf0                PROVIDE (__rela_iplt_end, .)

.init           0x0000000000402bf0       0x18
 *(SORT(.init))
 .init          0x0000000000402bf0        0x9 /usr/lib/../lib64/crti.o
                0x0000000000402bf0                _init
 .init          0x0000000000402bf9        0x5 /opt/gcc/4.9.2/snos/lib/gcc/x86_64-suse-linux/4.9.2/crtbegin.o
 .init          0x0000000000402bfe        0x5 /opt/gcc/4.9.2/snos/lib/gcc/x86_64-suse-linux/4.9.2/crtend.o
 .init          0x0000000000402c03        0x5 /usr/lib/../lib64/crtn.o

.plt            0x0000000000402c10      0x630
 *(.plt)
 .plt           0x0000000000402c10      0x630 /usr/lib/../lib64/crt1.o
                0x0000000000402c20                getenv@@GLIBC_2.2.5
                0x0000000000402c30                sigprocmask@@GLIBC_2.2.5
                0x0000000000402c40                raise@@GLIBC_2.2.5
                0x0000000000402c50                free@@GLIBC_2.2.5
                0x0000000000402c60                localtime@@GLIBC_2.2.5
                0x0000000000402c70                abort@@GLIBC_2.2.5
                0x0000000000402c80                _Unwind_Backtrace@@GCC_3.3
                0x0000000000402c90                __errno_location@@GLIBC_2.2.5
                0x0000000000402ca0                unlink@@GLIBC_2.2.5
                0x0000000000402cb0                strncpy@@GLIBC_2.2.5
                0x0000000000402cc0                localtime_r@@GLIBC_2.2.5
                0x0000000000402cd0                strcpy@@GLIBC_2.2.5
                0x0000000000402ce0                puts@@GLIBC_2.2.5
                0x0000000000402cf0                isatty@@GLIBC_2.2.5
                0x0000000000402d00                sigaction@@GLIBC_2.2.5
                0x0000000000402d10                fread@@GLIBC_2.2.5
                0x0000000000402d20                vsnprintf@@GLIBC_2.2.5
                0x0000000000402d30                readlink@@GLIBC_2.2.5
                0x0000000000402d40                fcntl@@GLIBC_2.2.5
                0x0000000000402d50                setenv@@GLIBC_2.2.5
                0x0000000000402d60                _Unwind_GetRegionStart@@GCC_3.0
                0x0000000000402d70                write@@GLIBC_2.2.5
                0x0000000000402d80                getpid@@GLIBC_2.2.5
                0x0000000000402d90                fclose@@GLIBC_2.2.5
                0x0000000000402da0                __xstat64@@GLIBC_2.2.5
                0x0000000000402db0                opendir@@GLIBC_2.2.5
                0x0000000000402dc0                strlen@@GLIBC_2.2.5
                0x0000000000402dd0                system@@GLIBC_2.2.5
                0x0000000000402de0                strchr@@GLIBC_2.2.5
                0x0000000000402df0                printf@@GLIBC_2.2.5
                0x0000000000402e00                snprintf@@GLIBC_2.2.5
                0x0000000000402e10                nanosleep@@GLIBC_2.2.5
                0x0000000000402e20                strrchr@@GLIBC_2.2.5
                0x0000000000402e30                uname@@GLIBC_2.2.5
                0x0000000000402e40                siglongjmp@@GLIBC_2.2.5
                0x0000000000402e50                gmtime_r@@GLIBC_2.2.5
                0x0000000000402e60                dladdr@@GLIBC_2.2.5
                0x0000000000402e70                gettimeofday@@GLIBC_2.2.5
                0x0000000000402e80                fputs@@GLIBC_2.2.5
                0x0000000000402e90                memset@@GLIBC_2.2.5
                0x0000000000402ea0                getcwd@@GLIBC_2.2.5
                0x0000000000402eb0                strncat@@GLIBC_2.2.5
                0x0000000000402ec0                close@@GLIBC_2.2.5
                0x0000000000402ed0                closedir@@GLIBC_2.2.5
                0x0000000000402ee0                fputc@@GLIBC_2.2.5
                0x0000000000402ef0                memchr@@GLIBC_2.2.5
                0x0000000000402f00                read@@GLIBC_2.2.5
                0x0000000000402f10                __libc_start_main@@GLIBC_2.2.5
                0x0000000000402f20                memcmp@@GLIBC_2.2.5
                0x0000000000402f30                mkstemp64@@GLIBC_2.2.5
                0x0000000000402f40                fgets@@GLIBC_2.2.5
                0x0000000000402f50                calloc@@GLIBC_2.2.5
                0x0000000000402f60                memcpy@@GLIBC_2.2.5
                0x0000000000402f70                __fxstat64@@GLIBC_2.2.5
                0x0000000000402f80                strcmp@@GLIBC_2.2.5
                0x0000000000402f90                signal@@GLIBC_2.2.5
                0x0000000000402fa0                _Unwind_ForcedUnwind@@GCC_3.0
                0x0000000000402fb0                fprintf@@GLIBC_2.2.5
                0x0000000000402fc0                sigemptyset@@GLIBC_2.2.5
                0x0000000000402fd0                ftell@@GLIBC_2.2.5
                0x0000000000402fe0                feof@@GLIBC_2.2.5
                0x0000000000402ff0                fopen64@@GLIBC_2.2.5
                0x0000000000403000                freopen64@@GLIBC_2.2.5
                0x0000000000403010                kill@@GLIBC_2.2.5
                0x0000000000403020                __xpg_basename@@GLIBC_2.2.5
                0x0000000000403030                fileno@@GLIBC_2.2.5
                0x0000000000403040                _Unwind_GetIP@@GCC_3.0
                0x0000000000403050                malloc@@GLIBC_2.2.5
                0x0000000000403060                catopen@@GLIBC_2.2.5
                0x0000000000403070                sscanf@@GLIBC_2.2.5
                0x0000000000403080                fseek@@GLIBC_2.2.5
                0x0000000000403090                ttyname@@GLIBC_2.2.5
                0x00000000004030a0                realloc@@GLIBC_2.2.5
                0x00000000004030b0                ftruncate64@@GLIBC_2.2.5
                0x00000000004030c0                open64@@GLIBC_2.2.5
                0x00000000004030d0                strftime@@GLIBC_2.2.5
                0x00000000004030e0                memmove@@GLIBC_2.2.5
                0x00000000004030f0                vsprintf@@GLIBC_2.2.5
                0x0000000000403100                atol@@GLIBC_2.2.5
                0x0000000000403110                times@@GLIBC_2.2.5
                0x0000000000403120                access@@GLIBC_2.2.5
                0x0000000000403130                fopen@@GLIBC_2.2.5
                0x0000000000403140                getrusage@@GLIBC_2.2.5
                0x0000000000403150                perror@@GLIBC_2.2.5
                0x0000000000403160                sysconf@@GLIBC_2.2.5
                0x0000000000403170                catclose@@GLIBC_2.2.5
                0x0000000000403180                catgets@@GLIBC_2.2.5
                0x0000000000403190                strcat@@GLIBC_2.2.5
                0x00000000004031a0                sprintf@@GLIBC_2.2.5
                0x00000000004031b0                exit@@GLIBC_2.2.5
                0x00000000004031c0                lseek64@@GLIBC_2.2.5
                0x00000000004031d0                posix_memalign@@GLIBC_2.2.5
                0x00000000004031e0                strerror@@GLIBC_2.2.5
                0x00000000004031f0                dlsym@@GLIBC_2.2.5
                0x0000000000403200                __sigsetjmp@@GLIBC_2.2.5
                0x0000000000403210                strstr@@GLIBC_2.2.5
                0x0000000000403220                __ctype_tolower_loc@@GLIBC_2.3
                0x0000000000403230                __ctype_b_loc@@GLIBC_2.3
 *(.iplt)
 .iplt          0x0000000000000000        0x0 /usr/lib/../lib64/crt1.o

.text           0x0000000000403240    0xb58e8
 *(.text.unlikely .text.*_unlikely)
 .text.unlikely
                0x0000000000403240        0x0 /opt/gcc/4.9.2/snos/lib/gcc/x86_64-suse-linux/4.9.2/crtbegin.o
 .text.unlikely
                0x0000000000403240        0x0 /opt/gcc/4.9.2/snos/lib/gcc/x86_64-suse-linux/4.9.2/crtend.o
 *(.text.exit .text.exit.*)
 *(.text.startup .text.startup.*)
 *(.text.hot .text.hot.*)
 *(.text .stub .text.* .gnu.linkonce.t.*)
 .text          0x0000000000403240       0x2c /usr/lib/../lib64/crt1.o
                0x0000000000403240                _start
 .text          0x000000000040326c       0x17 /usr/lib/../lib64/crti.o
 *fill*         0x0000000000403283        0xd 
 .text          0x0000000000403290      0x116 /opt/gcc/4.9.2/snos/lib/gcc/x86_64-suse-linux/4.9.2/crtbegin.o
 *fill*         0x00000000004033a6        0xa 
 .text          0x00000000004033b0       0x40 /opt/intel/composer_xe_2015.3.187/compiler/lib/intel64/for_main.o
                0x00000000004033b0                main
 .text          0x00000000004033f0     0x5050 fxcompoz.o
                0x00000000004033f0                MAIN__
 .text          0x0000000000408440       0x50 close99.o
                0x0000000000408440                close99_
 .text          0x0000000000408490     0xf950 fxcompozlib.o
                0x0000000000408490                allargv_
                0x0000000000408c10                atoi_
                0x00000000004091e0                dcdlnx6b_
                0x0000000000409c00                pk4_8bit_
                0x000000000040a040                mv8_8bit_
                0x000000000040a260                ekeyvals_
                0x000000000040c910                egtnxtwd_
                0x000000000040d8e0                lowrcase_
                0x000000000040e190                findlink_
                0x0000000000410440                isalpha_
                0x00000000004106c0                mkpurhdr_
                0x0000000000411250                plotpart_
                0x00000000004144a0                scan1440_
                0x0000000000414c90                vx6b_pur_
                0x0000000000416af0                strpfnam_
                0x0000000000417420                rec_dump_
 .text          0x0000000000417de0      0x1a0 open99.o
                0x0000000000417de0                open99_
 .text          0x0000000000417f80       0xa0 rd1byt99.o
                0x0000000000417f80                rd1byt99_
 .text          0x0000000000418020       0x80 reposi99.o
                0x0000000000418020                reposi99_
 .text          0x00000000004180a0       0x40 rewind99.o
                0x00000000004180a0                rewind99_
 .text          0x00000000004180e0       0x60 wheren99.o
                0x00000000004180e0                wheren99_
 .text          0x0000000000418140      0x8a0 /gpfs/hps/emc/global/noscrub/Boi.Vuong/lib/graphics/v2.0.0/intel/libgph_v2.0.0_8.a(bin2ch.o)
                0x0000000000418140                bin2ch_
 .text          0x00000000004189e0      0x250 /gpfs/hps/emc/global/noscrub/Boi.Vuong/lib/graphics/v2.0.0/intel/libgph_v2.0.0_8.a(cdc2asc.o)
                0x00000000004189e0                cdc2asc_
 .text          0x0000000000418c30     0x3ae0 /gpfs/hps/emc/global/noscrub/Boi.Vuong/lib/graphics/v2.0.0/intel/libgph_v2.0.0_8.a(consol.o)
                0x0000000000418c30                consol_
                0x000000000041bc90                setnam_
 .text          0x000000000041c710      0x390 /gpfs/hps/emc/global/noscrub/Boi.Vuong/lib/graphics/v2.0.0/intel/libgph_v2.0.0_8.a(xasc2asc.o)
                0x000000000041c710                xasc2asc_
 .text          0x000000000041caa0      0x990 /gpfs/hps/emc/global/noscrub/Boi.Vuong/lib/graphics/v2.0.0/intel/libutil_v2.0.0.a(sbytesccs.o)
                0x000000000041caa0                sbytesccs_
 .text          0x000000000041d430      0x250 /gpfs/hps/emc/global/noscrub/Boi.Vuong/lib/graphics/v2.0.0/intel/libutil_v2.0.0.a(swap_bytes_in_place.o)
                0x000000000041d430                swap_bytes_in_place_
 .text          0x000000000041d680       0xf0 /gpfs/hps/nco/ops/nwprod/lib/w3emc/v2.2.0/intel/libw3emc_v2.2.0_8.a(mova2i.o)
                0x000000000041d680                mova2i_
 .text          0x000000000041d770       0x20 /gpfs/hps/nco/ops/nwprod/lib/w3nco/v2.0.6/intel/libw3nco_v2.0.6_8.a(errexit.o)
                0x000000000041d770                errexit_
 .text          0x000000000041d790      0x340 /gpfs/hps/nco/ops/nwprod/lib/w3nco/v2.0.6/intel/libw3nco_v2.0.6_8.a(gbytes.o)
                0x000000000041d790                gbytes_
 .text          0x000000000041dad0      0x580 /gpfs/hps/nco/ops/nwprod/lib/w3nco/v2.0.6/intel/libw3nco_v2.0.6_8.a(w3as00.o)
                0x000000000041dad0                w3as00_
                0x000000000041df30                notrail_
                0x000000000041dfb0                lastch_
 .text          0x000000000041e050       0x10 /gpfs/hps/nco/ops/nwprod/lib/w3nco/v2.0.6/intel/libw3nco_v2.0.6_8.a(w3fi01.o)
                0x000000000041e050                w3fi01_
 .text          0x000000000041e060       0x90 /gpfs/hps/nco/ops/nwprod/lib/w3nco/v2.0.6/intel/libw3nco_v2.0.6_8.a(w3locdat.o)
                0x000000000041e060                w3locdat_
 .text          0x000000000041e0f0      0xb10 /gpfs/hps/nco/ops/nwprod/lib/w3nco/v2.0.6/intel/libw3nco_v2.0.6_8.a(w3tagb.o)
                0x000000000041e0f0                w3tagb_
                0x000000000041e169                w3tage_
 .text          0x000000000041ec00      0x1b0 /gpfs/hps/nco/ops/nwprod/lib/w3nco/v2.0.6/intel/libw3nco_v2.0.6_8.a(w3utcdat.o)
                0x000000000041ec00                w3utcdat_
 .text          0x000000000041edb0       0xb0 /gpfs/hps/nco/ops/nwprod/lib/w3nco/v2.0.6/intel/libw3nco_v2.0.6_8.a(xmovex.o)
                0x000000000041edb0                xmovex_
 .text          0x000000000041ee60     0x11f0 /gpfs/hps/nco/ops/nwprod/lib/w3nco/v2.0.6/intel/libw3nco_v2.0.6_8.a(summary.o)
                0x000000000041ee60                bucket
                0x000000000041ee80                elapse
                0x000000000041efa0                cputim
                0x000000000041eff0                start_timer
                0x000000000041f1a0                end_timer
                0x000000000041f390                resource
                0x000000000041f6c0                print_timing
                0x000000000041fae0                summary_
                0x000000000041ff10                start_
 .text          0x0000000000420050       0xe0 /gpfs/hps/nco/ops/nwprod/lib/w3nco/v2.0.6/intel/libw3nco_v2.0.6_8.a(iw3jdn.o)
                0x0000000000420050                iw3jdn_
 .text          0x0000000000420130       0x50 /gpfs/hps/nco/ops/nwprod/lib/w3nco/v2.0.6/intel/libw3nco_v2.0.6_8.a(w3doxdat.o)
                0x0000000000420130                w3doxdat_
 .text          0x0000000000420180      0x1e0 /gpfs/hps/nco/ops/nwprod/lib/w3nco/v2.0.6/intel/libw3nco_v2.0.6_8.a(w3fs26.o)
                0x0000000000420180                w3fs26_
 .text          0x0000000000420360      0x190 /opt/intel/composer_xe_2015.3.187/compiler/lib/intel64/libifport.a(getenv.o)
                0x0000000000420360                getenv_
 .text          0x00000000004204f0     0x4a50 /opt/intel/composer_xe_2015.3.187/compiler/lib/intel64/libifcore.a(for_diags_intel.o)
                0x00000000004204f0                for__this_image_number_or_zero
                0x0000000000420540                for__io_return
                0x0000000000421140                for__issue_diagnostic
                0x0000000000421ae0                for__get_msg
                0x0000000000421de0                for_emit_diagnostic
                0x0000000000421f50                for__message_catalog_close
                0x00000000004226b0                for_errmsg
                0x0000000000422870                for__rtc_uninit_use
                0x0000000000422890                for__rtc_uninit_use_src
                0x00000000004228b0                TRACEBACKQQ
                0x0000000000422af0                tracebackqq_
                0x0000000000422d30                for_perror_
                0x0000000000423f20                for_gerror_
                0x0000000000424cc0                for__establish_user_error_handler
                0x0000000000424d00                for__continue_traceback_
                0x0000000000424e20                for__continue_traceback
 .text          0x0000000000424f40     0x2830 /opt/intel/composer_xe_2015.3.187/compiler/lib/intel64/libifcore.a(for_endfile.o)
                0x0000000000424f40                for_endfile
                0x00000000004267e0                for_eof
 .text          0x0000000000427770       0x20 /opt/intel/composer_xe_2015.3.187/compiler/lib/intel64/libifcore.a(for_exit.o)
                0x0000000000427770                for_exit
 .text          0x0000000000427790      0x2f0 /opt/intel/composer_xe_2015.3.187/compiler/lib/intel64/libifcore.a(for_exit_handler.o)
                0x0000000000427790                for__fpe_exit_handler
                0x0000000000427870                for__exit_handler
 .text          0x0000000000427a80      0x5e0 /opt/intel/composer_xe_2015.3.187/compiler/lib/intel64/libifcore.a(for_getarg.o)
                0x0000000000427a80                for_nargs
                0x0000000000427a90                for_iargc
                0x0000000000427ab0                for_getarg
                0x0000000000427bc0                for_getarg_i2
                0x0000000000427cd0                nargs_
                0x0000000000427ce0                iargc_
                0x0000000000427d00                iarg_
                0x0000000000427d20                numarg_
                0x0000000000427d40                getarg_
                0x0000000000427e10                for_getcmd_arg
 .text          0x0000000000428060     0x2a50 /opt/intel/composer_xe_2015.3.187/compiler/lib/intel64/libifcore.a(for_init.o)
                0x0000000000428060                for__process_start_time
                0x0000000000428080                for__signal_handler
                0x0000000000428fd0                for_enable_underflow
                0x0000000000428ff0                for_get_fpe_
                0x00000000004291d0                for_set_fpe_
                0x0000000000429550                for_fpe_service
                0x0000000000429900                for_get_fpe_counts_
                0x0000000000429950                for_rtl_finish_
                0x0000000000429970                dump_dfil_exception_info
                0x000000000042a850                for_rtl_init_
 .text          0x000000000042aab0     0x1120 /opt/intel/composer_xe_2015.3.187/compiler/lib/intel64/libifcore.a(for_io_util.o)
                0x000000000042aab0                for__adjust_buffer
                0x000000000042ad00                for__lower_bound_index
                0x000000000042ad50                for__cvt_foreign_read
                0x000000000042b2a0                for__cvt_foreign_write
                0x000000000042baa0                for__cvt_foreign_check
                0x000000000042bb20                for_check_env_name
 .text          0x000000000042bbd0     0x2540 /opt/intel/composer_xe_2015.3.187/compiler/lib/intel64/libifcore.a(for_lub_mgt.o)
                0x000000000042bbd0                for__acquire_lun
                0x000000000042ca80                for__release_lun
                0x000000000042cda0                for__create_lub
                0x000000000042cf40                for__deallocate_lub
                0x000000000042da70                for__get_next_lub
                0x000000000042dee0                for__get_free_newunit
                0x000000000042e0b0                for__release_newunit
 .text          0x000000000042e110     0x5ca0 /opt/intel/composer_xe_2015.3.187/compiler/lib/intel64/libifcore.a(for_open.o)
                0x000000000042e110                SetEndian
                0x000000000042e510                CheckStreamRecortType
                0x000000000042e9f0                CheckEndian
                0x000000000042ee50                for_open
                0x0000000000430170                for__update_reopen_keywords
                0x0000000000431140                for__set_foreign_bits
                0x0000000000432460                for__open_key
                0x0000000000432710                for__open_args
                0x0000000000432ed0                for__find_iomsg
                0x0000000000432f70                for__set_terminator_option
                0x0000000000433470                for__set_conversion_option
                0x0000000000433880                for__is_special_device
                0x0000000000433a30                for__open_default
 .text          0x0000000000433db0      0x240 /opt/intel/composer_xe_2015.3.187/compiler/lib/intel64/libifcore.a(for_preconnected_units_init.o)
                0x0000000000433db0                for__preconnected_units_create
 .text          0x0000000000433ff0     0x1ec0 /opt/intel/composer_xe_2015.3.187/compiler/lib/intel64/libifcore.a(for_put.o)
                0x0000000000433ff0                for__put_su
                0x0000000000434670                for__write_output
                0x0000000000434a50                for__put_sf
                0x0000000000435b10                for__put_d
                0x0000000000435da0                for__flush_readahead
 .text          0x0000000000435eb0     0x2d90 /opt/intel/composer_xe_2015.3.187/compiler/lib/intel64/libifcore.a(for_rdir.o)
                0x0000000000435eb0                for_read_dir
                0x00000000004374c0                for_read_dir_xmit
 .text          0x0000000000438c40      0x280 /opt/intel/composer_xe_2015.3.187/compiler/lib/intel64/libifcore.a(for_reentrancy.o)
                0x0000000000438c40                for_set_reentrancy
                0x0000000000438c60                for__reentrancy_cleanup
                0x0000000000438cf0                for__disable_asynch_deliv_private
                0x0000000000438d10                for__enable_asynch_deliv_private
                0x0000000000438d30                for__once_private
                0x0000000000438d80                for__reentrancy_init
 .text          0x0000000000438ec0      0xe00 /opt/intel/composer_xe_2015.3.187/compiler/lib/intel64/libifcore.a(for_rewind.o)
                0x0000000000438ec0                for_rewind
 .text          0x0000000000439cc0     0x3580 /opt/intel/composer_xe_2015.3.187/compiler/lib/intel64/libifcore.a(for_rint_fmt.o)
                0x0000000000439cc0                for_read_int_fmt
                0x000000000043ad70                for_read_int_fmt_xmit
 .text          0x000000000043d240      0x870 /opt/intel/composer_xe_2015.3.187/compiler/lib/intel64/libifcore.a(for_secnds.o)
                0x000000000043d240                for_since_epoch
                0x000000000043d2e0                for_since_epoch_t
                0x000000000043d380                for_since_epoch_x
                0x000000000043d480                for_secnds
                0x000000000043d590                for_secnds_t
                0x000000000043d6a0                for_secnds_x
                0x000000000043d900                for_cpusec
                0x000000000043d990                for_cpusec_t
                0x000000000043da10                for_cpusec_x
 .text          0x000000000043dab0     0x2b50 /opt/intel/composer_xe_2015.3.187/compiler/lib/intel64/libifcore.a(for_stop.o)
                0x000000000043dab0                for_abort
                0x000000000043e570                for_stop_core_impl
                0x000000000043f120                for_stop_core
                0x000000000043fc50                for_stop
 .text          0x0000000000440600     0x1070 /opt/intel/composer_xe_2015.3.187/compiler/lib/intel64/libifcore.a(for_vm.o)
                0x0000000000440600                for__set_signal_ops_during_vm
                0x0000000000440640                for__get_vm
                0x0000000000440780                for__realloc_vm
                0x0000000000440870                for__free_vm
                0x00000000004408f0                for_allocate
                0x0000000000440c60                for_alloc_allocatable
                0x0000000000440fe0                for_deallocate
                0x0000000000441170                for_dealloc_allocatable
                0x0000000000441320                for_check_mult_overflow
                0x0000000000441440                for_check_mult_overflow64
                0x00000000004415c0                for__spec_align_alloc
                0x0000000000441660                for__spec_align_free
 .text          0x0000000000441670     0x3580 /opt/intel/composer_xe_2015.3.187/compiler/lib/intel64/libifcore.a(for_wdir.o)
                0x0000000000441670                for_write_dir
                0x0000000000442c10                for_write_dir_xmit
 .text          0x0000000000444bf0     0x39f0 /opt/intel/composer_xe_2015.3.187/compiler/lib/intel64/libifcore.a(for_wint_fmt.o)
                0x0000000000444bf0                for_write_int_fmt
                0x0000000000445d60                for_write_int_fmt_xmit
 .text          0x00000000004485e0     0x6200 /opt/intel/composer_xe_2015.3.187/compiler/lib/intel64/libifcore.a(for_wseq.o)
                0x00000000004485e0                for_write_seq
                0x0000000000449ce0                for_write_seq_xmit
                0x000000000044e380                for__finish_ufseq_write
 .text          0x000000000044e7e0     0x4b60 /opt/intel/composer_xe_2015.3.187/compiler/lib/intel64/libifcore.a(for_wseq_fmt.o)
                0x000000000044e7e0                for_write_seq_fmt
                0x0000000000450590                for_write_seq_fmt_xmit
                0x0000000000453170                for__write_args
 .text          0x0000000000453340     0x6b90 /opt/intel/composer_xe_2015.3.187/compiler/lib/intel64/libifcore.a(for_wseq_lis.o)
                0x0000000000453340                ensure_one_leading_blank_before_data
                0x0000000000453750                for_write_seq_lis
                0x0000000000455330                for_write_seq_lis_xmit
 .text          0x0000000000459ed0      0x5f0 /opt/intel/composer_xe_2015.3.187/compiler/lib/intel64/libifcore.a(for_90_date.o)
                0x0000000000459ed0                for_date_and_time
                0x000000000045a350                for_system_clock_count
                0x000000000045a440                for_system_clock_rate
                0x000000000045a480                for_system_clock_max
 .text          0x000000000045a4c0      0xb10 /opt/intel/composer_xe_2015.3.187/compiler/lib/intel64/libifcore.a(for_90_index.o)
                0x000000000045a4c0                for_index_back
                0x000000000045aa40                for_f90_index
 .text          0x000000000045afd0       0x80 /opt/intel/composer_xe_2015.3.187/compiler/lib/intel64/libifcore.a(for_90_trim.o)
                0x000000000045afd0                for_len_trim
                0x000000000045aff0                for_trim
 .text          0x000000000045b050      0xd30 /opt/intel/composer_xe_2015.3.187/compiler/lib/intel64/libifcore.a(for_f90str.o)
                0x000000000045b050                for_cpystr
                0x000000000045b0d0                for_cpstr_gt
                0x000000000045b290                for_cpstr_lt
                0x000000000045b450                for_cpstr_eq
                0x000000000045b590                for_cpstr_ne
                0x000000000045b6d0                for_cpstr_ge
                0x000000000045b890                for_cpstr_le
                0x000000000045ba50                for_cpstr
                0x000000000045bbc0                for_concat
 .text          0x000000000045bd80     0x1360 /opt/intel/composer_xe_2015.3.187/compiler/lib/intel64/libifcore.a(tbk_traceback.o)
                0x000000000045ce80                tbk_stack_trace
 .text          0x000000000045d0e0     0x4f30 /opt/intel/composer_xe_2015.3.187/compiler/lib/intel64/libifcore.a(for_aio.o)
                0x000000000045d0e0                for__aio_acquire_lun_fname
                0x000000000045d3b0                for__aio_release
                0x000000000045d480                for__aio_acquire_lun
                0x000000000045dcf0                for__aio_release_lun
                0x000000000045e310                for__aio_destroy
                0x000000000045e7b0                for_asynchronous
                0x000000000045f7f0                for_waitid
                0x0000000000460690                for_wait
                0x00000000004613e0                for__aio_check_unit
                0x0000000000461620                for__aio_error_handling
                0x0000000000461e50                for__aio_init
 .text          0x0000000000462010     0x5350 /opt/intel/composer_xe_2015.3.187/compiler/lib/intel64/libifcore.a(for_open_proc.o)
                0x0000000000462010                fname_from_piped_fd
                0x0000000000462250                for__reopen_file
                0x0000000000462340                for__compute_filename
                0x0000000000464ad0                for__open_proc
                0x0000000000467350                for__decl_exit_hand
 .text          0x0000000000467360       0xb0 /opt/intel/composer_xe_2015.3.187/compiler/lib/intel64/libifcore.a(for_aio_wrap.o)
                0x0000000000467360                for__aio_pthread_self
                0x0000000000467370                for__aio_pthread_create
                0x0000000000467390                for__aio_pthread_cancel
                0x00000000004673a0                for__aio_pthread_detach
                0x00000000004673b0                for__aio_pthread_mutex_lock
                0x00000000004673c0                for__aio_pthread_mutex_unlock
                0x00000000004673d0                for__aio_pthread_cond_wait
                0x00000000004673e0                for__aio_pthread_cond_signal
                0x00000000004673f0                for__aio_pthread_mutex_init
                0x0000000000467400                for__aio_pthread_exit
 .text          0x0000000000467410      0xad0 /opt/intel/composer_xe_2015.3.187/compiler/lib/intel64/libifcore.a(cvt_text_to_int.o)
                0x0000000000467410                cvt_text_to_integer
                0x0000000000467730                cvt_text_to_unsigned
                0x0000000000467960                cvt_text_to_integer64
                0x0000000000467c90                cvt_text_to_unsigned64
 .text          0x0000000000467ee0      0xd20 /opt/intel/composer_xe_2015.3.187/compiler/lib/intel64/libifcore.a(cvt_vax_f.o)
                0x0000000000467ee0                cvt_vax_f_to_ieee_single_
                0x0000000000468340                CVT_VAX_F_TO_IEEE_SINGLE
                0x00000000004687a0                cvt_vax_f_to_ieee_single
 .text          0x0000000000468c00      0xf80 /opt/intel/composer_xe_2015.3.187/compiler/lib/intel64/libifcore.a(cvt_vax_d.o)
                0x0000000000468c00                cvt_vax_d_to_ieee_double_
                0x0000000000469130                CVT_VAX_D_TO_IEEE_DOUBLE
                0x0000000000469660                cvt_vax_d_to_ieee_double
 .text          0x0000000000469b80      0xf20 /opt/intel/composer_xe_2015.3.187/compiler/lib/intel64/libifcore.a(cvt_vax_g.o)
                0x0000000000469b80                cvt_vax_g_to_ieee_double_
                0x000000000046a080                CVT_VAX_G_TO_IEEE_DOUBLE
                0x000000000046a580                cvt_vax_g_to_ieee_double
 .text          0x000000000046aaa0     0x1f40 /opt/intel/composer_xe_2015.3.187/compiler/lib/intel64/libifcore.a(cvt_cray.o)
                0x000000000046aaa0                cvt_cray_to_ieee_single_
                0x000000000046af70                CVT_CRAY_TO_IEEE_SINGLE
                0x000000000046b440                cvt_cray_to_ieee_single
                0x000000000046b930                cvt_cray_to_ieee_double_
                0x000000000046beb0                CVT_CRAY_TO_IEEE_DOUBLE
                0x000000000046c430                cvt_cray_to_ieee_double
 .text          0x000000000046c9e0      0xd80 /opt/intel/composer_xe_2015.3.187/compiler/lib/intel64/libifcore.a(cvt_ibm_short.o)
                0x000000000046c9e0                cvt_ibm_short_to_ieee_single_
                0x000000000046ce60                CVT_IBM_SHORT_TO_IEEE_SINGLE
                0x000000000046d2e0                cvt_ibm_short_to_ieee_single
 .text          0x000000000046d760     0x1070 /opt/intel/composer_xe_2015.3.187/compiler/lib/intel64/libifcore.a(cvt_ibm_long.o)
                0x000000000046d760                cvt_ibm_long_to_ieee_double_
                0x000000000046dcc0                CVT_IBM_LONG_TO_IEEE_DOUBLE
                0x000000000046e220                cvt_ibm_long_to_ieee_double
 .text          0x000000000046e7d0     0x4080 /opt/intel/composer_xe_2015.3.187/compiler/lib/intel64/libifcore.a(cvt_ieee_double.o)
                0x000000000046e7d0                cvt_ieee_double_to_cray_
                0x000000000046ec50                CVT_IEEE_DOUBLE_TO_CRAY
                0x000000000046f0d0                cvt_ieee_double_to_cray
                0x000000000046f550                cvt_ieee_double_to_ibm_long_
                0x000000000046fa10                CVT_IEEE_DOUBLE_TO_IBM_LONG
                0x000000000046fed0                cvt_ieee_double_to_ibm_long
                0x00000000004703b0                cvt_ieee_double_to_vax_d_
                0x0000000000470780                CVT_IEEE_DOUBLE_TO_VAX_D
                0x0000000000470b50                cvt_ieee_double_to_vax_d
                0x0000000000470f50                cvt_ieee_double_to_vax_g_
                0x0000000000471320                CVT_IEEE_DOUBLE_TO_VAX_G
                0x00000000004716f0                cvt_ieee_double_to_vax_g
                0x0000000000471af0                cvt_ieee_double_to_vax_h_
                0x0000000000471f60                CVT_IEEE_DOUBLE_TO_VAX_H
                0x00000000004723d0                cvt_ieee_double_to_vax_h
 .text          0x0000000000472850     0x1fe0 /opt/intel/composer_xe_2015.3.187/compiler/lib/intel64/libifcore.a(cvt_ieee_single.o)
                0x0000000000472850                cvt_ieee_single_to_cray_
                0x0000000000472bf0                CVT_IEEE_SINGLE_TO_CRAY
                0x0000000000472f90                cvt_ieee_single_to_cray
                0x0000000000473350                cvt_ieee_single_to_ibm_short_
                0x0000000000473740                CVT_IEEE_SINGLE_TO_IBM_SHORT
                0x0000000000473b30                cvt_ieee_single_to_ibm_short
                0x0000000000473f40                cvt_ieee_single_to_vax_f_
                0x0000000000474240                CVT_IEEE_SINGLE_TO_VAX_F
                0x0000000000474540                cvt_ieee_single_to_vax_f
 .text          0x0000000000474830      0x750 /opt/intel/composer_xe_2015.3.187/compiler/lib/intel64/libifcore.a(for_close.o)
                0x0000000000474830                for_close
                0x0000000000474d30                for__close_args
                0x0000000000474e60                for__close_default
 .text          0x0000000000474f80      0x6d0 /opt/intel/composer_xe_2015.3.187/compiler/lib/intel64/libifcore.a(for_close_proc.o)
                0x0000000000474f80                for__close_proc
 .text          0x0000000000475650      0x220 /opt/intel/composer_xe_2015.3.187/compiler/lib/intel64/libifcore.a(for_default_io_sizes_env_init.o)
                0x0000000000475650                for__default_io_sizes_env_init
 .text          0x0000000000475870      0xbd0 /opt/intel/composer_xe_2015.3.187/compiler/lib/intel64/libifcore.a(for_desc_item.o)
                0x0000000000475870                for__desc_ret_item
                0x0000000000475b80                for__key_desc_ret_item
                0x0000000000475eb0                for__desc_test_item
                0x00000000004760d0                for__desc_zero_length_item
 .text          0x0000000000476440     0x3320 /opt/intel/composer_xe_2015.3.187/compiler/lib/intel64/libifcore.a(for_fmt_comp.o)
                0x0000000000476440                for__format_compiler
 .text          0x0000000000479760     0x1810 /opt/intel/composer_xe_2015.3.187/compiler/lib/intel64/libifcore.a(for_fmt_val.o)
                0x0000000000479760                for__format_value
                0x000000000047a4b0                for__cvt_value
 .text          0x000000000047af70     0x2490 /opt/intel/composer_xe_2015.3.187/compiler/lib/intel64/libifcore.a(for_get.o)
                0x000000000047af70                for__get_s
                0x000000000047c340                for__read_input
                0x000000000047c460                for__get_d
                0x000000000047c810                for__get_su_fields
                0x000000000047d220                for__get_more_fields
 .text          0x000000000047d400      0x180 /opt/intel/composer_xe_2015.3.187/compiler/lib/intel64/libifcore.a(for_index.o)
                0x000000000047d400                for_index
                0x000000000047d480                for_string_index
                0x000000000047d500                for_index_ssll
 .text          0x000000000047d580      0xe80 /opt/intel/composer_xe_2015.3.187/compiler/lib/intel64/libifcore.a(for_intrp_fmt.o)
                0x000000000047d580                for__interp_fmt
 .text          0x000000000047e400        0x0 /opt/intel/composer_xe_2015.3.187/compiler/lib/intel64/libifcore.a(for_ldir_wfs.o)
 .text          0x000000000047e400      0x4e0 /opt/intel/composer_xe_2015.3.187/compiler/lib/intel64/libifcore.a(for_need_lf.o)
                0x000000000047e400                for__add_to_lf_table
                0x000000000047e860                for__rm_from_lf_table
 .text          0x000000000047e8e0        0x0 /opt/intel/composer_xe_2015.3.187/compiler/lib/intel64/libifcore.a(cvt__globals.o)
 .text          0x000000000047e8e0      0x7d0 /opt/intel/composer_xe_2015.3.187/compiler/lib/intel64/libifcore.a(cvt_int_to_text.o)
                0x000000000047e8e0                cvt_integer_to_text
                0x000000000047ead0                cvt_unsigned_to_text
                0x000000000047ecb0                cvt_integer64_to_text
                0x000000000047eec0                cvt_unsigned64_to_text
 .text          0x000000000047f0b0      0x780 /opt/intel/composer_xe_2015.3.187/compiler/lib/intel64/libifcore.a(cvt_data_to_text.o)
                0x000000000047f0b0                cvt_data_to_text
                0x000000000047f470                cvt_data64_to_text
 .text          0x000000000047f830      0x8d0 /opt/intel/composer_xe_2015.3.187/compiler/lib/intel64/libifcore.a(cvt_log_to_text.o)
                0x000000000047f830                cvt_boolean_to_text
                0x000000000047fb30                cvt_boolean_to_text_ex
                0x000000000047fe30                cvt_boolean64_to_text
 .text          0x0000000000480100      0x570 /opt/intel/composer_xe_2015.3.187/compiler/lib/intel64/libifcore.a(cvt_text_to_data.o)
                0x0000000000480100                cvt_text_to_data
                0x00000000004803e0                cvt_text_to_data64
 .text          0x0000000000480670      0x220 /opt/intel/composer_xe_2015.3.187/compiler/lib/intel64/libifcore.a(cvt_text_to_log.o)
                0x0000000000480670                cvt_text_to_boolean
                0x0000000000480780                cvt_text_to_boolean64
 .text          0x0000000000480890     0x2820 /opt/intel/composer_xe_2015.3.187/compiler/lib/intel64/libifcore.a(cvt_cvtas_t.o)
                0x0000000000480890                cvt_ieee_t_to_text_ex
                0x0000000000481c00                cvt_ieee_t_to_text
                0x0000000000482f20                cvt_text_to_ieee_t_ex
 .text          0x00000000004830b0     0x2760 /opt/intel/composer_xe_2015.3.187/compiler/lib/intel64/libifcore.a(cvt_cvtas_s.o)
                0x00000000004830b0                cvt_ieee_s_to_text_ex
                0x00000000004843c0                cvt_ieee_s_to_text
                0x0000000000485680                cvt_text_to_ieee_s_ex
 .text          0x0000000000485810     0x1610 /opt/intel/composer_xe_2015.3.187/compiler/lib/intel64/libifcore.a(cvt_cvtas_x.o)
                0x0000000000485810                cvt_ieee_x_to_text
                0x0000000000485860                cvt_ieee_x_to_text_ex
                0x0000000000486c90                cvt_text_to_ieee_x_ex
 .text          0x0000000000486e20     0x1660 /opt/intel/composer_xe_2015.3.187/compiler/lib/intel64/libifcore.a(cvtas_a_to_s.o)
                0x0000000000486e20                cvtas_a_to_s
 .text          0x0000000000488480     0x2bb0 /opt/intel/composer_xe_2015.3.187/compiler/lib/intel64/libifcore.a(cvtas_a_to_t.o)
                0x0000000000488480                cvtas_a_to_t
 .text          0x000000000048b030     0x53f0 /opt/intel/composer_xe_2015.3.187/compiler/lib/intel64/libifcore.a(cvtas_s_to_a.o)
                0x000000000048b030                cvtas_s_to_a
 .text          0x0000000000490420     0x5530 /opt/intel/composer_xe_2015.3.187/compiler/lib/intel64/libifcore.a(cvtas_t_to_a.o)
                0x0000000000490420                cvtas_t_to_a
 .text          0x0000000000495950       0xd0 /opt/intel/composer_xe_2015.3.187/compiler/lib/intel64/libifcore.a(cvtas_nan_s.o)
                0x0000000000495950                cvtas__nan_s
 .text          0x0000000000495a20       0xc0 /opt/intel/composer_xe_2015.3.187/compiler/lib/intel64/libifcore.a(cvtas_nan_t.o)
                0x0000000000495a20                cvtas__nan_t
 .text          0x0000000000495ae0     0x5270 /opt/intel/composer_xe_2015.3.187/compiler/lib/intel64/libifcore.a(cvtas_a_to_x.o)
                0x0000000000495ae0                cvtas_a_to_x
 .text          0x000000000049ad50     0x5750 /opt/intel/composer_xe_2015.3.187/compiler/lib/intel64/libifcore.a(cvtas_x_to_a.o)
                0x000000000049ad50                cvtas_x_to_a
 .text          0x00000000004a04a0       0xf0 /opt/intel/composer_xe_2015.3.187/compiler/lib/intel64/libifcore.a(cvtas_nan_x.o)
                0x00000000004a04a0                cvtas__nan_x
 .text          0x00000000004a0590        0x0 /opt/intel/composer_xe_2015.3.187/compiler/lib/intel64/libifcore.a(cvtas_globals.o)
 .text          0x00000000004a0590        0x0 /opt/intel/composer_xe_2015.3.187/compiler/lib/intel64/libifcore.a(cvtas_pow_ten_53.o)
 .text          0x00000000004a0590        0x0 /opt/intel/composer_xe_2015.3.187/compiler/lib/intel64/libifcore.a(cvtas_pow_ten_64.o)
 .text          0x00000000004a0590        0x0 /opt/intel/composer_xe_2015.3.187/compiler/lib/intel64/libifcore.a(cvtas_pow_ten_128.o)
 .text          0x00000000004a0590       0x30 /opt/intel/composer_xe_2015.3.187/compiler/lib/intel64/libimf.a(fetestexcept.o)
                0x00000000004a0590                fetestexcept
 .text          0x00000000004a05c0       0x50 /opt/intel/composer_xe_2015.3.187/compiler/lib/intel64/libimf.a(log_stub.o)
                0x00000000004a05c0                log
 .text          0x00000000004a0610      0x270 /opt/intel/composer_xe_2015.3.187/compiler/lib/intel64/libimf.a(log_ct.o)
                0x00000000004a0610                log.L
 .text          0x00000000004a0880      0x280 /opt/intel/composer_xe_2015.3.187/compiler/lib/intel64/libimf.a(log_gen.o)
                0x00000000004a0880                log.A
 .text          0x00000000004a0b00      0x7f0 /opt/intel/composer_xe_2015.3.187/compiler/lib/intel64/libimf.a(libm_error.o)
                0x00000000004a0d10                __libm_copy_value
                0x00000000004a0e60                __libm_error_support
                0x00000000004a1260                __libm_setusermatherrl
                0x00000000004a1290                __libm_setusermatherr
                0x00000000004a12c0                __libm_setusermatherrf
 .text          0x00000000004a12f0       0x10 /opt/intel/composer_xe_2015.3.187/compiler/lib/intel64/libimf.a(matherrf.o)
                0x00000000004a12f0                matherrf
 .text          0x00000000004a1300       0x10 /opt/intel/composer_xe_2015.3.187/compiler/lib/intel64/libimf.a(matherrl.o)
                0x00000000004a1300                matherrl
 .text          0x00000000004a1310       0x10 /opt/intel/composer_xe_2015.3.187/compiler/lib/intel64/libimf.a(matherr.o)
                0x00000000004a1310                matherr
 .text          0x00000000004a1320      0x1e0 /opt/intel/composer_xe_2015.3.187/compiler/lib/intel64/libirc.a(ints2q.o)
                0x00000000004a1320                __ktoq
                0x00000000004a13b0                __jtoq
                0x00000000004a1460                __itoq
                0x00000000004a14c0                __utoq
 .text          0x00000000004a1500      0x560 /opt/intel/composer_xe_2015.3.187/compiler/lib/intel64/libirc.a(qcomp.o)
                0x00000000004a1500                __eqq
                0x00000000004a1580                __neq
                0x00000000004a1610                __leq
                0x00000000004a16f0                __ltq
                0x00000000004a17d0                __geq
                0x00000000004a18b0                __gtq
                0x00000000004a1990                __compareq
 .text          0x00000000004a1a60      0x1d0 /opt/intel/composer_xe_2015.3.187/compiler/lib/intel64/libirc.a(fp2q.o)
                0x00000000004a1a60                __dtoq
                0x00000000004a1b30                __ltoq
                0x00000000004a1ba0                __ftoq
 .text          0x00000000004a1c30      0x7e0 /opt/intel/composer_xe_2015.3.187/compiler/lib/intel64/libirc.a(q2fp.o)
                0x00000000004a1c30                __qtod
                0x00000000004a1f20                __qtol
                0x00000000004a2160                __qtof
 .text          0x00000000004a2410      0x650 /opt/intel/composer_xe_2015.3.187/compiler/lib/intel64/libirc.a(tbk_display.o)
                0x00000000004a2410                tbk_string_stack_signal
                0x00000000004a2476                tbk_string_stack_signal_impl
 .text          0x00000000004a2a60     0x1640 /opt/intel/composer_xe_2015.3.187/compiler/lib/intel64/libirc.a(tbk_backtrace.o)
                0x00000000004a2a60                tbk_getPC
                0x00000000004a2a70                tbk_getRetAddr
                0x00000000004a2a80                tbk_getFramePtr
                0x00000000004a2a90                tbk_getModuleName
                0x00000000004a2db0                tbk_get_pc_info
                0x00000000004a3970                tbk_geterrorstring
                0x00000000004a3b20                tbk_trace_stack
                0x00000000004a3b74                tbk_trace_stack_impl
 .text          0x00000000004a40a0      0x460 /opt/intel/composer_xe_2015.3.187/compiler/lib/intel64/libirc.a(cpu_feature_disp.o)
                0x00000000004a40a0                __intel_cpu_features_init_x
                0x00000000004a40c0                __intel_cpu_features_init
 .text          0x00000000004a4500       0xe0 /opt/intel/composer_xe_2015.3.187/compiler/lib/intel64/libirc.a(ia32_memcmp.o)
                0x00000000004a4500                _intel_fast_memcmp
 .text          0x00000000004a45e0       0xc0 /opt/intel/composer_xe_2015.3.187/compiler/lib/intel64/libirc.a(fastmemcpy.o)
                0x00000000004a45e0                _intel_fast_memcpy.A
                0x00000000004a45f0                _intel_fast_memcpy.J
                0x00000000004a4600                _intel_fast_memcpy.M
                0x00000000004a4610                _intel_fast_memcpy.P
                0x00000000004a4620                _intel_fast_memcpy
 .text          0x00000000004a46a0       0x90 /opt/intel/composer_xe_2015.3.187/compiler/lib/intel64/libirc.a(fastmemmove.o)
                0x00000000004a46a0                _intel_fast_memmove.A
                0x00000000004a46b0                _intel_fast_memmove.M
                0x00000000004a46c0                _intel_fast_memmove.P
                0x00000000004a46d0                _intel_fast_memmove
 .text          0x00000000004a4730       0x60 /opt/intel/composer_xe_2015.3.187/compiler/lib/intel64/libirc.a(fastmemset.o)
                0x00000000004a4730                _intel_fast_memset.A
                0x00000000004a4740                _intel_fast_memset.J
                0x00000000004a4750                _intel_fast_memset
 .text          0x00000000004a4790      0x360 /opt/intel/composer_xe_2015.3.187/compiler/lib/intel64/libirc.a(new_proc_init.o)
                0x00000000004a4790                __intel_new_feature_proc_init
 .text          0x00000000004a4af0     0x3190 /opt/intel/composer_xe_2015.3.187/compiler/lib/intel64/libirc.a(ia32_addsubq.o)
                0x00000000004a5e00                __addq
                0x00000000004a5eb0                __subq
 .text          0x00000000004a7c80     0x1c00 /opt/intel/composer_xe_2015.3.187/compiler/lib/intel64/libirc.a(ia32_divq.o)
                0x00000000004a7c80                __divq.L
                0x00000000004a8a60                __divq.A
                0x00000000004a9840                __divq
 .text          0x00000000004a9880      0x130 /opt/intel/composer_xe_2015.3.187/compiler/lib/intel64/libirc.a(sse2_strcpy.o)
                0x00000000004a9880                __intel_sse2_strcpy
 .text          0x00000000004a99b0      0x190 /opt/intel/composer_xe_2015.3.187/compiler/lib/intel64/libirc.a(sse2_strncpy.o)
                0x00000000004a99b0                __intel_sse2_strncpy
 .text          0x00000000004a9b40       0x30 /opt/intel/composer_xe_2015.3.187/compiler/lib/intel64/libirc.a(sse2_strlen.o)
                0x00000000004a9b40                __intel_sse2_strlen
 .text          0x00000000004a9b70       0x40 /opt/intel/composer_xe_2015.3.187/compiler/lib/intel64/libirc.a(sse2_strchr.o)
                0x00000000004a9b70                __intel_sse2_strchr
 .text          0x00000000004a9bb0      0x2e0 /opt/intel/composer_xe_2015.3.187/compiler/lib/intel64/libirc.a(sse2_strncmp.o)
                0x00000000004a9bb0                __intel_sse2_strncmp
 .text          0x00000000004a9e90      0x280 /opt/intel/composer_xe_2015.3.187/compiler/lib/intel64/libirc.a(sse2_strcat.o)
                0x00000000004a9e90                __intel_sse2_strcat
 .text          0x00000000004aa110      0x330 /opt/intel/composer_xe_2015.3.187/compiler/lib/intel64/libirc.a(sse2_strncat.o)
                0x00000000004aa110                __intel_sse2_strncat
 .text          0x00000000004aa440     0x17b0 /opt/intel/composer_xe_2015.3.187/compiler/lib/intel64/libirc.a(fast_memcpy_pp.o)
                0x00000000004aa440                __intel_memcpy
                0x00000000004aa440                __intel_new_memcpy
 .text          0x00000000004abbf0     0x11e0 /opt/intel/composer_xe_2015.3.187/compiler/lib/intel64/libirc.a(fast_memset_pp.o)
                0x00000000004abbf0                __intel_memset
                0x00000000004abbf0                __intel_new_memset
 .text          0x00000000004acdd0        0x0 /opt/intel/composer_xe_2015.3.187/compiler/lib/intel64/libirc.a(intel_ssse3_memcpy.o)
 .text.ssse3    0x00000000004acdd0     0x29c5 /opt/intel/composer_xe_2015.3.187/compiler/lib/intel64/libirc.a(intel_ssse3_memcpy.o)
                0x00000000004acdd0                __intel_ssse3_memcpy
 *fill*         0x00000000004af795        0x3 
 .text          0x00000000004af798        0x0 /opt/intel/composer_xe_2015.3.187/compiler/lib/intel64/libirc.a(intel_ssse3_rep_memcpy.o)
 *fill*         0x00000000004af798        0x8 
 .text.ssse3    0x00000000004af7a0     0x2ab6 /opt/intel/composer_xe_2015.3.187/compiler/lib/intel64/libirc.a(intel_ssse3_rep_memcpy.o)
                0x00000000004af7a0                __intel_ssse3_rep_memcpy
 *fill*         0x00000000004b2256        0x2 
 .text          0x00000000004b2258        0x0 /opt/intel/composer_xe_2015.3.187/compiler/lib/intel64/libirc.a(intel_ssse3_memmove.o)
 *fill*         0x00000000004b2258        0x8 
 .text.ssse3    0x00000000004b2260     0x2b76 /opt/intel/composer_xe_2015.3.187/compiler/lib/intel64/libirc.a(intel_ssse3_memmove.o)
                0x00000000004b2260                __intel_ssse3_memmove
 *fill*         0x00000000004b4dd6        0x2 
 .text          0x00000000004b4dd8        0x0 /opt/intel/composer_xe_2015.3.187/compiler/lib/intel64/libirc.a(intel_ssse3_rep_memmove.o)
 *fill*         0x00000000004b4dd8        0x8 
 .text.ssse3    0x00000000004b4de0     0x2af6 /opt/intel/composer_xe_2015.3.187/compiler/lib/intel64/libirc.a(intel_ssse3_rep_memmove.o)
                0x00000000004b4de0                __intel_ssse3_rep_memmove
 *fill*         0x00000000004b78d6        0xa 
 .text          0x00000000004b78e0      0x4e0 /opt/intel/composer_xe_2015.3.187/compiler/lib/intel64/libirc.a(irc_msg_support.o)
                0x00000000004b78e0                __libirc_get_msg
                0x00000000004b7b10                __libirc_print
 .text          0x00000000004b7dc0      0xbe0 /opt/intel/composer_xe_2015.3.187/compiler/lib/intel64/libirc.a(fast_mem_ops.o)
                0x00000000004b7dc0                __cacheSize
 .text          0x00000000004b89a0       0xb0 /opt/intel/composer_xe_2015.3.187/compiler/lib/intel64/libirc.a(proc_init_utils.o)
                0x00000000004b89a0                __intel_proc_init_ftzdazule
 .text          0x00000000004b8a50       0x99 /usr/lib64/libc_nonshared.a(elf-init.oS)
                0x00000000004b8a50                __libc_csu_fini
                0x00000000004b8a60                __libc_csu_init
 *fill*         0x00000000004b8ae9        0x7 
 .text          0x00000000004b8af0       0x36 /opt/gcc/4.9.2/snos/lib/gcc/x86_64-suse-linux/4.9.2/crtend.o
 *fill*         0x00000000004b8b26        0x2 
 .text          0x00000000004b8b28        0x0 /usr/lib/../lib64/crtn.o
 *(.gnu.warning)

.fini           0x00000000004b8b28       0x16
 *(SORT(.fini))
 .fini          0x00000000004b8b28       0x10 /usr/lib/../lib64/crti.o
                0x00000000004b8b28                _fini
 .fini          0x00000000004b8b38        0x5 /opt/gcc/4.9.2/snos/lib/gcc/x86_64-suse-linux/4.9.2/crtbegin.o
 .fini          0x00000000004b8b3d        0x1 /usr/lib/../lib64/crtn.o
                0x00000000004b8b3e                PROVIDE (__etext, .)
                0x00000000004b8b3e                PROVIDE (_etext, .)
                0x00000000004b8b3e                PROVIDE (etext, .)

.rodata         0x00000000004b8b40    0x19fe0
 *(.rodata .rodata.* .gnu.linkonce.r.*)
 .rodata.cst4   0x00000000004b8b40        0x4 /usr/lib/../lib64/crt1.o
                0x00000000004b8b40                _IO_stdin_used
 *fill*         0x00000000004b8b44       0x1c 
 .rodata        0x00000000004b8b60      0xb20 fxcompoz.o
 .rodata.str1.4
                0x00000000004b9680       0x8d fxcompoz.o
                                         0xb4 (size before relaxing)
 *fill*         0x00000000004b970d       0x13 
 .rodata.str1.32
                0x00000000004b9720       0x41 fxcompoz.o
                                         0x60 (size before relaxing)
 *fill*         0x00000000004b9761        0x3 
 .rodata.str1.4
                0x00000000004b9764       0x43 close99.o
                                         0x44 (size before relaxing)
 *fill*         0x00000000004b97a7       0x19 
 .rodata        0x00000000004b97c0     0x26c0 fxcompozlib.o
 .rodata.str1.4
                0x00000000004bbe80       0x13 fxcompozlib.o
                                         0x60 (size before relaxing)
 *fill*         0x00000000004bbe93        0x1 
 .rodata.str1.4
                0x00000000004bbe94       0x82 open99.o
                                         0x84 (size before relaxing)
 *fill*         0x00000000004bbf16        0x2 
 .rodata.str1.4
                0x00000000004bbf18       0x3b rd1byt99.o
                                         0x3c (size before relaxing)
 *fill*         0x00000000004bbf53        0x1 
 .rodata.str1.4
                0x00000000004bbf54       0x64 reposi99.o
 .rodata.str1.4
                0x00000000004bbfb8       0x29 rewind99.o
                                         0x2c (size before relaxing)
 *fill*         0x00000000004bbfe1        0x3 
 .rodata.str1.4
                0x00000000004bbfe4       0x49 wheren99.o
                                         0x4c (size before relaxing)
 *fill*         0x00000000004bc02d       0x13 
 .rodata        0x00000000004bc040      0x260 /gpfs/hps/emc/global/noscrub/Boi.Vuong/lib/graphics/v2.0.0/intel/libgph_v2.0.0_8.a(bin2ch.o)
 .rodata.str1.4
                0x00000000004bc2a0       0x1a /gpfs/hps/emc/global/noscrub/Boi.Vuong/lib/graphics/v2.0.0/intel/libgph_v2.0.0_8.a(bin2ch.o)
                                         0x74 (size before relaxing)
 *fill*         0x00000000004bc2ba        0x6 
 .rodata        0x00000000004bc2c0      0x160 /gpfs/hps/emc/global/noscrub/Boi.Vuong/lib/graphics/v2.0.0/intel/libgph_v2.0.0_8.a(cdc2asc.o)
 .rodata        0x00000000004bc420      0x7c0 /gpfs/hps/emc/global/noscrub/Boi.Vuong/lib/graphics/v2.0.0/intel/libgph_v2.0.0_8.a(consol.o)
 .rodata.str1.4
                0x00000000004bcbe0       0x22 /gpfs/hps/emc/global/noscrub/Boi.Vuong/lib/graphics/v2.0.0/intel/libgph_v2.0.0_8.a(consol.o)
                                         0x60 (size before relaxing)
 *fill*         0x00000000004bcc02       0x1e 
 .rodata        0x00000000004bcc20      0x140 /gpfs/hps/emc/global/noscrub/Boi.Vuong/lib/graphics/v2.0.0/intel/libgph_v2.0.0_8.a(xasc2asc.o)
 .rodata        0x00000000004bcd60      0x1c0 /gpfs/hps/emc/global/noscrub/Boi.Vuong/lib/graphics/v2.0.0/intel/libutil_v2.0.0.a(sbytesccs.o)
 .rodata.str1.32
                0x00000000004bcf20       0x46 /gpfs/hps/emc/global/noscrub/Boi.Vuong/lib/graphics/v2.0.0/intel/libutil_v2.0.0.a(swap_bytes_in_place.o)
                                         0x60 (size before relaxing)
 *fill*         0x00000000004bcf66        0xa 
 .rodata        0x00000000004bcf70       0x40 /gpfs/hps/nco/ops/nwprod/lib/w3nco/v2.0.6/intel/libw3nco_v2.0.6_8.a(gbytes.o)
 .rodata        0x00000000004bcfb0       0x1c /gpfs/hps/nco/ops/nwprod/lib/w3nco/v2.0.6/intel/libw3nco_v2.0.6_8.a(w3as00.o)
 .rodata.str1.4
                0x00000000004bcfcc        0x3 /gpfs/hps/nco/ops/nwprod/lib/w3nco/v2.0.6/intel/libw3nco_v2.0.6_8.a(w3as00.o)
                                         0x14 (size before relaxing)
 *fill*         0x00000000004bcfcf        0x1 
 .rodata        0x00000000004bcfd0        0x8 /gpfs/hps/nco/ops/nwprod/lib/w3nco/v2.0.6/intel/libw3nco_v2.0.6_8.a(w3locdat.o)
 .rodata        0x00000000004bcfd8      0x1a0 /gpfs/hps/nco/ops/nwprod/lib/w3nco/v2.0.6/intel/libw3nco_v2.0.6_8.a(w3tagb.o)
 .rodata        0x00000000004bd178        0x8 /gpfs/hps/nco/ops/nwprod/lib/w3nco/v2.0.6/intel/libw3nco_v2.0.6_8.a(w3utcdat.o)
 .rodata        0x00000000004bd180       0x18 /gpfs/hps/nco/ops/nwprod/lib/w3nco/v2.0.6/intel/libw3nco_v2.0.6_8.a(summary.o)
 .rodata.str1.4
                0x00000000004bd198      0x2c2 /gpfs/hps/nco/ops/nwprod/lib/w3nco/v2.0.6/intel/libw3nco_v2.0.6_8.a(summary.o)
                                        0x300 (size before relaxing)
 *fill*         0x00000000004bd45a        0x6 
 .rodata.str1.32
                0x00000000004bd460      0x1df /gpfs/hps/nco/ops/nwprod/lib/w3nco/v2.0.6/intel/libw3nco_v2.0.6_8.a(summary.o)
                                        0x480 (size before relaxing)
 *fill*         0x00000000004bd63f        0x1 
 .rodata        0x00000000004bd640       0x10 /opt/intel/composer_xe_2015.3.187/compiler/lib/intel64/libifport.a(getenv.o)
 .rodata.str1.4
                0x00000000004bd650     0x3c49 /opt/intel/composer_xe_2015.3.187/compiler/lib/intel64/libifcore.a(for_diags_intel.o)
                                       0x3cc4 (size before relaxing)
 *fill*         0x00000000004c1299        0x7 
 .rodata        0x00000000004c12a0       0x58 /opt/intel/composer_xe_2015.3.187/compiler/lib/intel64/libifcore.a(for_diags_intel.o)
 *fill*         0x00000000004c12f8        0x8 
 .rodata.str1.32
                0x00000000004c1300     0x1644 /opt/intel/composer_xe_2015.3.187/compiler/lib/intel64/libifcore.a(for_diags_intel.o)
                                       0x1660 (size before relaxing)
 .rodata.str1.4
                0x00000000004c2944       0x16 /opt/intel/composer_xe_2015.3.187/compiler/lib/intel64/libifcore.a(for_endfile.o)
                                         0x18 (size before relaxing)
 *fill*         0x00000000004c295a        0x6 
 .rodata        0x00000000004c2960       0x90 /opt/intel/composer_xe_2015.3.187/compiler/lib/intel64/libifcore.a(for_endfile.o)
 .rodata.str1.4
                0x00000000004c29f0       0x13 /opt/intel/composer_xe_2015.3.187/compiler/lib/intel64/libifcore.a(for_exit_handler.o)
                                         0x14 (size before relaxing)
 *fill*         0x00000000004c2a03        0xd 
 .rodata        0x00000000004c2a10       0x10 /opt/intel/composer_xe_2015.3.187/compiler/lib/intel64/libifcore.a(for_getarg.o)
 .rodata.str1.4
                0x00000000004c2a20       0xd0 /opt/intel/composer_xe_2015.3.187/compiler/lib/intel64/libifcore.a(for_init.o)
 .rodata        0x00000000004c2af0      0x160 /opt/intel/composer_xe_2015.3.187/compiler/lib/intel64/libifcore.a(for_init.o)
 *fill*         0x00000000004c2c50       0x10 
 .rodata.str1.32
                0x00000000004c2c60     0x1ecd /opt/intel/composer_xe_2015.3.187/compiler/lib/intel64/libifcore.a(for_init.o)
                                       0x1ee0 (size before relaxing)
 *fill*         0x00000000004c4b2d       0x13 
 .rodata        0x00000000004c4b40      0x3c0 /opt/intel/composer_xe_2015.3.187/compiler/lib/intel64/libifcore.a(for_io_util.o)
 .rodata.str1.4
                0x00000000004c4f00        0x3 /opt/intel/composer_xe_2015.3.187/compiler/lib/intel64/libifcore.a(for_io_util.o)
                                          0x4 (size before relaxing)
 *fill*         0x00000000004c4f03        0x5 
 .rodata        0x00000000004c4f08      0x2d0 /opt/intel/composer_xe_2015.3.187/compiler/lib/intel64/libifcore.a(for_lub_mgt.o)
 .rodata.str1.4
                0x00000000004c51d8        0xe /opt/intel/composer_xe_2015.3.187/compiler/lib/intel64/libifcore.a(for_lub_mgt.o)
                                         0x10 (size before relaxing)
 *fill*         0x00000000004c51e6        0x2 
 .rodata.str1.4
                0x00000000004c51e8      0x3bd /opt/intel/composer_xe_2015.3.187/compiler/lib/intel64/libifcore.a(for_open.o)
                                        0x3f0 (size before relaxing)
 *fill*         0x00000000004c55a5       0x1b 
 .rodata        0x00000000004c55c0     0x1980 /opt/intel/composer_xe_2015.3.187/compiler/lib/intel64/libifcore.a(for_open.o)
 .rodata.str1.4
                0x00000000004c6f40        0x7 /opt/intel/composer_xe_2015.3.187/compiler/lib/intel64/libifcore.a(for_preconnected_units_init.o)
                                          0x8 (size before relaxing)
 *fill*         0x00000000004c6f47        0x1 
 .rodata        0x00000000004c6f48      0x210 /opt/intel/composer_xe_2015.3.187/compiler/lib/intel64/libifcore.a(for_put.o)
 .rodata.str1.4
                0x00000000004c7158        0xa /opt/intel/composer_xe_2015.3.187/compiler/lib/intel64/libifcore.a(for_put.o)
                                          0xc (size before relaxing)
 *fill*         0x00000000004c7162        0x2 
 .rodata.str1.4
                0x00000000004c7164        0xb /opt/intel/composer_xe_2015.3.187/compiler/lib/intel64/libifcore.a(for_rdir.o)
                                         0x14 (size before relaxing)
 *fill*         0x00000000004c716f        0x1 
 .rodata        0x00000000004c7170       0x68 /opt/intel/composer_xe_2015.3.187/compiler/lib/intel64/libifcore.a(for_rdir.o)
 *fill*         0x00000000004c71d8        0x8 
 .rodata        0x00000000004c71e0       0x80 /opt/intel/composer_xe_2015.3.187/compiler/lib/intel64/libifcore.a(for_reentrancy.o)
 .rodata.str1.4
                0x00000000004c7260        0xd /opt/intel/composer_xe_2015.3.187/compiler/lib/intel64/libifcore.a(for_rewind.o)
                                         0x18 (size before relaxing)
 *fill*         0x00000000004c726d        0x3 
 .rodata.str1.4
                0x00000000004c7270       0x57 /opt/intel/composer_xe_2015.3.187/compiler/lib/intel64/libifcore.a(for_rint_fmt.o)
                                         0x60 (size before relaxing)
 *fill*         0x00000000004c72c7        0x9 
 .rodata        0x00000000004c72d0      0x270 /opt/intel/composer_xe_2015.3.187/compiler/lib/intel64/libifcore.a(for_rint_fmt.o)
 .rodata        0x00000000004c7540       0x70 /opt/intel/composer_xe_2015.3.187/compiler/lib/intel64/libifcore.a(for_secnds.o)
 .rodata.str1.4
                0x00000000004c75b0        0xb /opt/intel/composer_xe_2015.3.187/compiler/lib/intel64/libifcore.a(for_stop.o)
                                         0x14 (size before relaxing)
 *fill*         0x00000000004c75bb        0x5 
 .rodata        0x00000000004c75c0      0x200 /opt/intel/composer_xe_2015.3.187/compiler/lib/intel64/libifcore.a(for_stop.o)
 .rodata.str1.4
                0x00000000004c77c0        0xb /opt/intel/composer_xe_2015.3.187/compiler/lib/intel64/libifcore.a(for_wdir.o)
                                         0x14 (size before relaxing)
 *fill*         0x00000000004c77cb        0x5 
 .rodata        0x00000000004c77d0       0x68 /opt/intel/composer_xe_2015.3.187/compiler/lib/intel64/libifcore.a(for_wdir.o)
 .rodata.str1.4
                0x00000000004c7838       0x4d /opt/intel/composer_xe_2015.3.187/compiler/lib/intel64/libifcore.a(for_wint_fmt.o)
                                         0x64 (size before relaxing)
 *fill*         0x00000000004c7885        0xb 
 .rodata        0x00000000004c7890      0x220 /opt/intel/composer_xe_2015.3.187/compiler/lib/intel64/libifcore.a(for_wint_fmt.o)
 .rodata.str1.4
                0x00000000004c7ab0        0xb /opt/intel/composer_xe_2015.3.187/compiler/lib/intel64/libifcore.a(for_wseq.o)
                                         0x14 (size before relaxing)
 *fill*         0x00000000004c7abb        0x5 
 .rodata        0x00000000004c7ac0      0x248 /opt/intel/composer_xe_2015.3.187/compiler/lib/intel64/libifcore.a(for_wseq.o)
 .rodata.str1.4
                0x00000000004c7d08        0xf /opt/intel/composer_xe_2015.3.187/compiler/lib/intel64/libifcore.a(for_wseq_fmt.o)
                                         0x24 (size before relaxing)
 *fill*         0x00000000004c7d17        0x9 
 .rodata        0x00000000004c7d20      0x2e0 /opt/intel/composer_xe_2015.3.187/compiler/lib/intel64/libifcore.a(for_wseq_fmt.o)
 .rodata        0x00000000004c8000      0x4b0 /opt/intel/composer_xe_2015.3.187/compiler/lib/intel64/libifcore.a(for_wseq_lis.o)
 .rodata.str1.4
                0x00000000004c84b0        0xf /opt/intel/composer_xe_2015.3.187/compiler/lib/intel64/libifcore.a(for_wseq_lis.o)
                                         0x18 (size before relaxing)
 *fill*         0x00000000004c84bf        0x1 
 .rodata.str1.4
                0x00000000004c84c0       0x25 /opt/intel/composer_xe_2015.3.187/compiler/lib/intel64/libifcore.a(for_90_date.o)
                                         0x28 (size before relaxing)
 *fill*         0x00000000004c84e5        0x3 
 .rodata        0x00000000004c84e8       0x98 /opt/intel/composer_xe_2015.3.187/compiler/lib/intel64/libifcore.a(for_f90str.o)
 .rodata.str1.4
                0x00000000004c8580        0xd /opt/intel/composer_xe_2015.3.187/compiler/lib/intel64/libifcore.a(for_f90str.o)
                                         0x10 (size before relaxing)
 *fill*         0x00000000004c858d        0x3 
 .rodata.str1.4
                0x00000000004c8590      0x1ef /opt/intel/composer_xe_2015.3.187/compiler/lib/intel64/libifcore.a(tbk_traceback.o)
                                        0x1fc (size before relaxing)
 *fill*         0x00000000004c877f        0x1 
 .rodata.str1.32
                0x00000000004c8780      0xb93 /opt/intel/composer_xe_2015.3.187/compiler/lib/intel64/libifcore.a(tbk_traceback.o)
                                        0xba0 (size before relaxing)
 *fill*         0x00000000004c9313        0x1 
 .rodata.str1.4
                0x00000000004c9314       0xea /opt/intel/composer_xe_2015.3.187/compiler/lib/intel64/libifcore.a(for_aio.o)
                                        0x100 (size before relaxing)
 *fill*         0x00000000004c93fe        0x2 
 .rodata.str1.4
                0x00000000004c9400       0xb0 /opt/intel/composer_xe_2015.3.187/compiler/lib/intel64/libifcore.a(for_open_proc.o)
                                        0x104 (size before relaxing)
 .rodata        0x00000000004c94b0      0x310 /opt/intel/composer_xe_2015.3.187/compiler/lib/intel64/libifcore.a(for_open_proc.o)
 .rodata        0x00000000004c97c0       0x10 /opt/intel/composer_xe_2015.3.187/compiler/lib/intel64/libifcore.a(cvt_text_to_int.o)
 .rodata        0x00000000004c97d0      0x198 /opt/intel/composer_xe_2015.3.187/compiler/lib/intel64/libifcore.a(cvt_vax_f.o)
 .rodata        0x00000000004c9968      0x198 /opt/intel/composer_xe_2015.3.187/compiler/lib/intel64/libifcore.a(cvt_vax_d.o)
 .rodata        0x00000000004c9b00      0x198 /opt/intel/composer_xe_2015.3.187/compiler/lib/intel64/libifcore.a(cvt_vax_g.o)
 .rodata        0x00000000004c9c98      0x330 /opt/intel/composer_xe_2015.3.187/compiler/lib/intel64/libifcore.a(cvt_cray.o)
 .rodata        0x00000000004c9fc8      0x198 /opt/intel/composer_xe_2015.3.187/compiler/lib/intel64/libifcore.a(cvt_ibm_short.o)
 .rodata        0x00000000004ca160      0x198 /opt/intel/composer_xe_2015.3.187/compiler/lib/intel64/libifcore.a(cvt_ibm_long.o)
 .rodata        0x00000000004ca2f8      0x7f8 /opt/intel/composer_xe_2015.3.187/compiler/lib/intel64/libifcore.a(cvt_ieee_double.o)
 .rodata        0x00000000004caaf0      0x4c8 /opt/intel/composer_xe_2015.3.187/compiler/lib/intel64/libifcore.a(cvt_ieee_single.o)
 .rodata.str1.4
                0x0000000000000000        0x8 /opt/intel/composer_xe_2015.3.187/compiler/lib/intel64/libifcore.a(for_close.o)
 .rodata        0x00000000004cafb8       0x48 /opt/intel/composer_xe_2015.3.187/compiler/lib/intel64/libifcore.a(for_close_proc.o)
 .rodata.str1.4
                0x00000000004cb000       0x66 /opt/intel/composer_xe_2015.3.187/compiler/lib/intel64/libifcore.a(for_close_proc.o)
                                         0x68 (size before relaxing)
 *fill*         0x00000000004cb066        0x2 
 .rodata.str1.4
                0x00000000004cb068       0x43 /opt/intel/composer_xe_2015.3.187/compiler/lib/intel64/libifcore.a(for_default_io_sizes_env_init.o)
                                         0x44 (size before relaxing)
 *fill*         0x00000000004cb0ab       0x15 
 .rodata        0x00000000004cb0c0      0x200 /opt/intel/composer_xe_2015.3.187/compiler/lib/intel64/libifcore.a(for_desc_item.o)
                0x00000000004cb220                for__dsc_itm_table
 .rodata.str1.4
                0x00000000004cb2c0       0x10 /opt/intel/composer_xe_2015.3.187/compiler/lib/intel64/libifcore.a(for_desc_item.o)
 *fill*         0x00000000004cb2d0       0x10 
 .rodata        0x00000000004cb2e0      0x3a0 /opt/intel/composer_xe_2015.3.187/compiler/lib/intel64/libifcore.a(for_fmt_comp.o)
 .rodata.str1.4
                0x00000000004cb680        0xf /opt/intel/composer_xe_2015.3.187/compiler/lib/intel64/libifcore.a(for_fmt_comp.o)
                                         0x10 (size before relaxing)
 *fill*         0x00000000004cb68f        0x1 
 .rodata        0x00000000004cb690     0x1100 /opt/intel/composer_xe_2015.3.187/compiler/lib/intel64/libifcore.a(for_fmt_val.o)
 .rodata        0x00000000004cc790       0x48 /opt/intel/composer_xe_2015.3.187/compiler/lib/intel64/libifcore.a(for_get.o)
 .rodata.str1.4
                0x00000000004cc7d8        0xa /opt/intel/composer_xe_2015.3.187/compiler/lib/intel64/libifcore.a(for_get.o)
                                          0xc (size before relaxing)
 *fill*         0x00000000004cc7e2       0x1e 
 .rodata        0x00000000004cc800      0xbe0 /opt/intel/composer_xe_2015.3.187/compiler/lib/intel64/libifcore.a(for_intrp_fmt.o)
                0x00000000004ccd80                for__oz_fmt_table
                0x00000000004ccde0                for__b_fmt_table
                0x00000000004cce80                for__fedg_fmt_table
                0x00000000004ccf60                for__coerce_data_types
                0x00000000004cd3c3                for__i_fmt_table
 .rodata.str1.4
                0x00000000004cd3e0       0x10 /opt/intel/composer_xe_2015.3.187/compiler/lib/intel64/libifcore.a(for_intrp_fmt.o)
 *fill*         0x00000000004cd3f0       0x10 
 .rodata        0x00000000004cd400      0x240 /opt/intel/composer_xe_2015.3.187/compiler/lib/intel64/libifcore.a(for_ldir_wfs.o)
                0x00000000004cd400                for__wfs_table
                0x00000000004cd520                for__wfs_msf_table
 .rodata.str1.4
                0x0000000000000000        0x8 /opt/intel/composer_xe_2015.3.187/compiler/lib/intel64/libifcore.a(for_need_lf.o)
 .rodata        0x00000000004cd640       0x60 /opt/intel/composer_xe_2015.3.187/compiler/lib/intel64/libifcore.a(for_need_lf.o)
 .rodata        0x00000000004cd6a0      0x1c0 /opt/intel/composer_xe_2015.3.187/compiler/lib/intel64/libifcore.a(cvt__globals.o)
                0x00000000004cd6a0                vax_c
                0x00000000004cd6e0                ieee_t
                0x00000000004cd750                ieee_s
                0x00000000004cd788                ibm_s
                0x00000000004cd7a4                ibm_l
                0x00000000004cd7dc                cray
                0x00000000004cd814                int_c
 .rodata        0x00000000004cd860       0x20 /opt/intel/composer_xe_2015.3.187/compiler/lib/intel64/libifcore.a(cvt_int_to_text.o)
 .rodata.str1.4
                0x00000000004cd880       0x11 /opt/intel/composer_xe_2015.3.187/compiler/lib/intel64/libifcore.a(cvt_int_to_text.o)
                                         0x14 (size before relaxing)
 .rodata.str1.4
                0x0000000000000000       0x14 /opt/intel/composer_xe_2015.3.187/compiler/lib/intel64/libifcore.a(cvt_data_to_text.o)
 *fill*         0x00000000004cd891        0xf 
 .rodata        0x00000000004cd8a0       0x20 /opt/intel/composer_xe_2015.3.187/compiler/lib/intel64/libifcore.a(cvt_data_to_text.o)
 .rodata        0x00000000004cd8c0       0x30 /opt/intel/composer_xe_2015.3.187/compiler/lib/intel64/libifcore.a(cvt_log_to_text.o)
 .rodata        0x00000000004cd8f0       0x10 /opt/intel/composer_xe_2015.3.187/compiler/lib/intel64/libifcore.a(cvt_cvtas_t.o)
 .rodata        0x00000000004cd900       0x10 /opt/intel/composer_xe_2015.3.187/compiler/lib/intel64/libifcore.a(cvt_cvtas_s.o)
 .rodata        0x00000000004cd910       0x10 /opt/intel/composer_xe_2015.3.187/compiler/lib/intel64/libifcore.a(cvt_cvtas_x.o)
 .rodata        0x00000000004cd920      0x150 /opt/intel/composer_xe_2015.3.187/compiler/lib/intel64/libifcore.a(cvtas_a_to_s.o)
 .rodata.str1.4
                0x00000000004cda70        0xd /opt/intel/composer_xe_2015.3.187/compiler/lib/intel64/libifcore.a(cvtas_a_to_s.o)
                                         0x10 (size before relaxing)
 *fill*         0x00000000004cda7d        0x3 
 .rodata        0x00000000004cda80      0x150 /opt/intel/composer_xe_2015.3.187/compiler/lib/intel64/libifcore.a(cvtas_a_to_t.o)
 .rodata.str1.4
                0x0000000000000000       0x10 /opt/intel/composer_xe_2015.3.187/compiler/lib/intel64/libifcore.a(cvtas_a_to_t.o)
 .rodata.str1.4
                0x00000000004cdbd0       0x20 /opt/intel/composer_xe_2015.3.187/compiler/lib/intel64/libifcore.a(cvtas_s_to_a.o)
                                         0x30 (size before relaxing)
 .rodata        0x00000000004cdbf0       0x10 /opt/intel/composer_xe_2015.3.187/compiler/lib/intel64/libifcore.a(cvtas_s_to_a.o)
 .rodata.str1.4
                0x0000000000000000       0x30 /opt/intel/composer_xe_2015.3.187/compiler/lib/intel64/libifcore.a(cvtas_t_to_a.o)
 .rodata        0x00000000004cdc00       0x10 /opt/intel/composer_xe_2015.3.187/compiler/lib/intel64/libifcore.a(cvtas_t_to_a.o)
 .rodata        0x00000000004cdc10      0x138 /opt/intel/composer_xe_2015.3.187/compiler/lib/intel64/libifcore.a(cvtas_a_to_x.o)
 .rodata.str1.4
                0x0000000000000000       0x10 /opt/intel/composer_xe_2015.3.187/compiler/lib/intel64/libifcore.a(cvtas_a_to_x.o)
 .rodata.str1.4
                0x0000000000000000       0x30 /opt/intel/composer_xe_2015.3.187/compiler/lib/intel64/libifcore.a(cvtas_x_to_a.o)
 *fill*         0x00000000004cdd48        0x8 
 .rodata        0x00000000004cdd50       0x10 /opt/intel/composer_xe_2015.3.187/compiler/lib/intel64/libifcore.a(cvtas_x_to_a.o)
 .rodata        0x00000000004cdd60      0x180 /opt/intel/composer_xe_2015.3.187/compiler/lib/intel64/libifcore.a(cvtas_globals.o)
                0x00000000004cdd60                cvtas_pten_word
                0x00000000004cde00                cvtas_globals_t
                0x00000000004cde60                cvtas_globals_x
                0x00000000004cdec0                cvtas_globals_s
 .rodata        0x00000000004cdee0      0x4e0 /opt/intel/composer_xe_2015.3.187/compiler/lib/intel64/libifcore.a(cvtas_pow_ten_53.o)
                0x00000000004cdee0                cvtas_pten_t
                0x00000000004ce1e0                cvtas_tiny_pten_t
                0x00000000004ce280                cvtas_tiny_pten_t_map
                0x00000000004ce2e0                cvtas_huge_pten_t
                0x00000000004ce360                cvtas_huge_pten_t_map
 .rodata        0x00000000004ce3c0      0x5e0 /opt/intel/composer_xe_2015.3.187/compiler/lib/intel64/libifcore.a(cvtas_pow_ten_64.o)
                0x00000000004ce3c0                cvtas_pten_64
                0x00000000004ce6c0                cvtas_pten_64_bexp
                0x00000000004ce780                cvtas_tiny_pten_64
                0x00000000004ce800                cvtas_tiny_pten_64_map
                0x00000000004ce880                cvtas_huge_pten_64
                0x00000000004ce900                cvtas_huge_pten_64_map
                0x00000000004ce95a                cvtas_tiny_pten_64_bexp
                0x00000000004ce978                cvtas_huge_pten_64_bexp
 .rodata        0x00000000004ce9a0      0x520 /opt/intel/composer_xe_2015.3.187/compiler/lib/intel64/libifcore.a(cvtas_pow_ten_128.o)
                0x00000000004ce9a0                cvtas_pten_128
                0x00000000004ceb60                cvtas_tiny_tiny_pten_128
                0x00000000004ceba0                cvtas_tiny_pten_128
                0x00000000004cec40                cvtas_tiny_pten_128_map
                0x00000000004cece0                cvtas_huge_huge_pten_128
                0x00000000004ced20                cvtas_huge_pten_128
                0x00000000004cedc0                cvtas_huge_pten_128_map
                0x00000000004cee48                cvtas_pten_128_bexp
                0x00000000004cee7e                cvtas_tiny_tiny_pten_128_bexp
                0x00000000004cee86                cvtas_tiny_pten_128_bexp
                0x00000000004cee9a                cvtas_huge_huge_pten_128_bexp
                0x00000000004ceea2                cvtas_huge_pten_128_bexp
 .rodata        0x00000000004ceec0      0x850 /opt/intel/composer_xe_2015.3.187/compiler/lib/intel64/libimf.a(log_ct.o)
 .rodata        0x00000000004cf710      0x850 /opt/intel/composer_xe_2015.3.187/compiler/lib/intel64/libimf.a(log_gen.o)
 .rodata.str1.4
                0x00000000004cff60      0x45a /opt/intel/composer_xe_2015.3.187/compiler/lib/intel64/libimf.a(libm_error.o)
                                        0x484 (size before relaxing)
 *fill*         0x00000000004d03ba        0x6 
 .rodata        0x00000000004d03c0      0x918 /opt/intel/composer_xe_2015.3.187/compiler/lib/intel64/libimf.a(libm_error.o)
 .rodata        0x00000000004d0cd8        0x8 /opt/intel/composer_xe_2015.3.187/compiler/lib/intel64/libirc.a(qcomp.o)
 .rodata        0x00000000004d0ce0        0xc /opt/intel/composer_xe_2015.3.187/compiler/lib/intel64/libirc.a(fp2q.o)
 *fill*         0x00000000004d0cec        0x4 
 .rodata        0x00000000004d0cf0       0x28 /opt/intel/composer_xe_2015.3.187/compiler/lib/intel64/libirc.a(q2fp.o)
 .rodata.str1.4
                0x00000000004d0d18      0x113 /opt/intel/composer_xe_2015.3.187/compiler/lib/intel64/libirc.a(tbk_display.o)
                                        0x118 (size before relaxing)
 *fill*         0x00000000004d0e2b       0x15 
 .rodata.str1.32
                0x00000000004d0e40       0xa2 /opt/intel/composer_xe_2015.3.187/compiler/lib/intel64/libirc.a(tbk_display.o)
                                         0xc0 (size before relaxing)
 *fill*         0x00000000004d0ee2        0x2 
 .rodata.str1.4
                0x00000000004d0ee4       0x24 /opt/intel/composer_xe_2015.3.187/compiler/lib/intel64/libirc.a(tbk_backtrace.o)
                                         0x3c (size before relaxing)
 .rodata        0x00000000004d0f08       0x24 /opt/intel/composer_xe_2015.3.187/compiler/lib/intel64/libirc.a(tbk_backtrace.o)
 .rodata.str1.4
                0x00000000004d0f2c      0x14b /opt/intel/composer_xe_2015.3.187/compiler/lib/intel64/libirc.a(new_proc_init.o)
                                        0x150 (size before relaxing)
 *fill*         0x00000000004d1077        0x9 
 .rodata        0x00000000004d1080       0xa0 /opt/intel/composer_xe_2015.3.187/compiler/lib/intel64/libirc.a(ia32_addsubq.o)
 .rodata        0x00000000004d1120       0x90 /opt/intel/composer_xe_2015.3.187/compiler/lib/intel64/libirc.a(ia32_divq.o)
 .rodata.ssse3  0x00000000004d11b0      0x1c0 /opt/intel/composer_xe_2015.3.187/compiler/lib/intel64/libirc.a(intel_ssse3_memcpy.o)
 .rodata.ssse3  0x00000000004d1370      0x500 /opt/intel/composer_xe_2015.3.187/compiler/lib/intel64/libirc.a(intel_ssse3_rep_memcpy.o)
 .rodata.ssse3  0x00000000004d1870      0x1c0 /opt/intel/composer_xe_2015.3.187/compiler/lib/intel64/libirc.a(intel_ssse3_memmove.o)
 .rodata.ssse3  0x00000000004d1a30      0x500 /opt/intel/composer_xe_2015.3.187/compiler/lib/intel64/libirc.a(intel_ssse3_rep_memmove.o)
 .rodata.str1.4
                0x00000000004d1f30      0x58c /opt/intel/composer_xe_2015.3.187/compiler/lib/intel64/libirc.a(irc_msg_support.o)
                                        0x5b0 (size before relaxing)
 *fill*         0x00000000004d24bc        0x4 
 .rodata.str1.32
                0x00000000004d24c0      0x660 /opt/intel/composer_xe_2015.3.187/compiler/lib/intel64/libirc.a(irc_msg_support.o)

.trace          0x00000000004d2b20     0x2640
 .trace         0x00000000004d2b20      0x4c8 fxcompoz.o
 .trace         0x00000000004d2fe8       0x50 close99.o
 .trace         0x00000000004d3038     0x16f0 fxcompozlib.o
 .trace         0x00000000004d4728       0x70 open99.o
 .trace         0x00000000004d4798       0x60 rd1byt99.o
 .trace         0x00000000004d47f8       0x58 reposi99.o
 .trace         0x00000000004d4850       0x50 rewind99.o
 .trace         0x00000000004d48a0       0x58 wheren99.o
 .trace         0x00000000004d48f8      0x170 /gpfs/hps/emc/global/noscrub/Boi.Vuong/lib/graphics/v2.0.0/intel/libgph_v2.0.0_8.a(bin2ch.o)
 .trace         0x00000000004d4a68       0x68 /gpfs/hps/emc/global/noscrub/Boi.Vuong/lib/graphics/v2.0.0/intel/libgph_v2.0.0_8.a(cdc2asc.o)
 .trace         0x00000000004d4ad0      0x438 /gpfs/hps/emc/global/noscrub/Boi.Vuong/lib/graphics/v2.0.0/intel/libgph_v2.0.0_8.a(consol.o)
 .trace         0x00000000004d4f08       0x80 /gpfs/hps/emc/global/noscrub/Boi.Vuong/lib/graphics/v2.0.0/intel/libgph_v2.0.0_8.a(xasc2asc.o)
 .trace         0x00000000004d4f88       0xe8 /gpfs/hps/emc/global/noscrub/Boi.Vuong/lib/graphics/v2.0.0/intel/libutil_v2.0.0.a(sbytesccs.o)
 .trace         0x00000000004d5070       0xa8 /gpfs/hps/emc/global/noscrub/Boi.Vuong/lib/graphics/v2.0.0/intel/libutil_v2.0.0.a(swap_bytes_in_place.o)
 .trace         0x00000000004d5118       0x48 /gpfs/hps/nco/ops/nwprod/lib/w3emc/v2.2.0/intel/libw3emc_v2.2.0_8.a(mova2i.o)

.rodata1
 *(.rodata1)

.eh_frame_hdr   0x00000000004d5160      0xde4
 *(.eh_frame_hdr)
 .eh_frame_hdr  0x00000000004d5160      0xde4 /usr/lib/../lib64/crti.o

.eh_frame       0x00000000004d5f48     0xe92c
 *(.eh_frame)
 .eh_frame      0x00000000004d5f48       0x40 /usr/lib/../lib64/crt1.o
 .eh_frame      0x00000000004d5f88       0x20 /usr/lib/../lib64/crti.o
                                         0x38 (size before relaxing)
 .eh_frame      0x00000000004d5fa8       0x38 /opt/intel/composer_xe_2015.3.187/compiler/lib/intel64/for_main.o
                                         0x50 (size before relaxing)
 .eh_frame      0x00000000004d5fe0      0x100 fxcompoz.o
 .eh_frame      0x00000000004d60e0       0x30 close99.o
                                         0x48 (size before relaxing)
 .eh_frame      0x00000000004d6110      0x4d0 fxcompozlib.o
                                        0x4e8 (size before relaxing)
 .eh_frame      0x00000000004d65e0       0x90 open99.o
                                         0xa8 (size before relaxing)
 .eh_frame      0x00000000004d6670       0x58 rd1byt99.o
                                         0x70 (size before relaxing)
 .eh_frame      0x00000000004d66c8       0x38 reposi99.o
                                         0x50 (size before relaxing)
 .eh_frame      0x00000000004d6700       0x28 rewind99.o
                                         0x40 (size before relaxing)
 .eh_frame      0x00000000004d6728       0x38 wheren99.o
                                         0x50 (size before relaxing)
 .eh_frame      0x00000000004d6760       0x48 /gpfs/hps/emc/global/noscrub/Boi.Vuong/lib/graphics/v2.0.0/intel/libgph_v2.0.0_8.a(bin2ch.o)
                                         0x60 (size before relaxing)
 .eh_frame      0x00000000004d67a8       0x48 /gpfs/hps/emc/global/noscrub/Boi.Vuong/lib/graphics/v2.0.0/intel/libgph_v2.0.0_8.a(cdc2asc.o)
                                         0x60 (size before relaxing)
 .eh_frame      0x00000000004d67f0       0xd8 /gpfs/hps/emc/global/noscrub/Boi.Vuong/lib/graphics/v2.0.0/intel/libgph_v2.0.0_8.a(consol.o)
                                         0xf0 (size before relaxing)
 .eh_frame      0x00000000004d68c8       0x48 /gpfs/hps/emc/global/noscrub/Boi.Vuong/lib/graphics/v2.0.0/intel/libgph_v2.0.0_8.a(xasc2asc.o)
                                         0x60 (size before relaxing)
 .eh_frame      0x00000000004d6910       0x48 /gpfs/hps/emc/global/noscrub/Boi.Vuong/lib/graphics/v2.0.0/intel/libutil_v2.0.0.a(sbytesccs.o)
                                         0x60 (size before relaxing)
 .eh_frame      0x00000000004d6958       0x40 /gpfs/hps/emc/global/noscrub/Boi.Vuong/lib/graphics/v2.0.0/intel/libutil_v2.0.0.a(swap_bytes_in_place.o)
                                         0x58 (size before relaxing)
 .eh_frame      0x00000000004d6998       0x30 /gpfs/hps/nco/ops/nwprod/lib/w3emc/v2.2.0/intel/libw3emc_v2.2.0_8.a(mova2i.o)
                                         0x48 (size before relaxing)
 .eh_frame      0x00000000004d69c8       0x20 /gpfs/hps/nco/ops/nwprod/lib/w3nco/v2.0.6/intel/libw3nco_v2.0.6_8.a(errexit.o)
                                         0x38 (size before relaxing)
 .eh_frame      0x00000000004d69e8       0x68 /gpfs/hps/nco/ops/nwprod/lib/w3nco/v2.0.6/intel/libw3nco_v2.0.6_8.a(gbytes.o)
                                         0x80 (size before relaxing)
 .eh_frame      0x00000000004d6a50      0x170 /gpfs/hps/nco/ops/nwprod/lib/w3nco/v2.0.6/intel/libw3nco_v2.0.6_8.a(w3as00.o)
                                        0x188 (size before relaxing)
 .eh_frame      0x00000000004d6bc0       0x18 /gpfs/hps/nco/ops/nwprod/lib/w3nco/v2.0.6/intel/libw3nco_v2.0.6_8.a(w3fi01.o)
                                         0x30 (size before relaxing)
 .eh_frame      0x00000000004d6bd8       0x38 /gpfs/hps/nco/ops/nwprod/lib/w3nco/v2.0.6/intel/libw3nco_v2.0.6_8.a(w3locdat.o)
                                         0x50 (size before relaxing)
 .eh_frame      0x00000000004d6c10       0xf0 /gpfs/hps/nco/ops/nwprod/lib/w3nco/v2.0.6/intel/libw3nco_v2.0.6_8.a(w3tagb.o)
                                        0x108 (size before relaxing)
 .eh_frame      0x00000000004d6d00       0x88 /gpfs/hps/nco/ops/nwprod/lib/w3nco/v2.0.6/intel/libw3nco_v2.0.6_8.a(w3utcdat.o)
                                         0xa0 (size before relaxing)
 .eh_frame      0x00000000004d6d88       0x18 /gpfs/hps/nco/ops/nwprod/lib/w3nco/v2.0.6/intel/libw3nco_v2.0.6_8.a(xmovex.o)
                                         0x30 (size before relaxing)
 .eh_frame      0x00000000004d6da0      0x490 /gpfs/hps/nco/ops/nwprod/lib/w3nco/v2.0.6/intel/libw3nco_v2.0.6_8.a(summary.o)
                                        0x4a8 (size before relaxing)
 .eh_frame      0x00000000004d7230       0x18 /gpfs/hps/nco/ops/nwprod/lib/w3nco/v2.0.6/intel/libw3nco_v2.0.6_8.a(iw3jdn.o)
                                         0x30 (size before relaxing)
 .eh_frame      0x00000000004d7248       0x40 /gpfs/hps/nco/ops/nwprod/lib/w3nco/v2.0.6/intel/libw3nco_v2.0.6_8.a(w3doxdat.o)
                                         0x58 (size before relaxing)
 .eh_frame      0x00000000004d7288       0x40 /gpfs/hps/nco/ops/nwprod/lib/w3nco/v2.0.6/intel/libw3nco_v2.0.6_8.a(w3fs26.o)
                                         0x58 (size before relaxing)
 .eh_frame      0x00000000004d72c8       0x50 /opt/intel/composer_xe_2015.3.187/compiler/lib/intel64/libifport.a(getenv.o)
                                         0x68 (size before relaxing)
 .eh_frame      0x00000000004d7318      0x4d8 /opt/intel/composer_xe_2015.3.187/compiler/lib/intel64/libifcore.a(for_diags_intel.o)
                                        0x4f0 (size before relaxing)
 .eh_frame      0x00000000004d77f0      0x728 /opt/intel/composer_xe_2015.3.187/compiler/lib/intel64/libifcore.a(for_endfile.o)
                                        0x740 (size before relaxing)
 .eh_frame      0x00000000004d7f18       0x28 /opt/intel/composer_xe_2015.3.187/compiler/lib/intel64/libifcore.a(for_exit.o)
                                         0x40 (size before relaxing)
 .eh_frame      0x00000000004d7f40       0x60 /opt/intel/composer_xe_2015.3.187/compiler/lib/intel64/libifcore.a(for_exit_handler.o)
                                         0x78 (size before relaxing)
 .eh_frame      0x00000000004d7fa0      0x1c0 /opt/intel/composer_xe_2015.3.187/compiler/lib/intel64/libifcore.a(for_getarg.o)
                                        0x1d8 (size before relaxing)
 .eh_frame      0x00000000004d8160      0x358 /opt/intel/composer_xe_2015.3.187/compiler/lib/intel64/libifcore.a(for_init.o)
                                        0x370 (size before relaxing)
 .eh_frame      0x00000000004d84b8      0x1c0 /opt/intel/composer_xe_2015.3.187/compiler/lib/intel64/libifcore.a(for_io_util.o)
                                        0x1d8 (size before relaxing)
 .eh_frame      0x00000000004d8678      0x430 /opt/intel/composer_xe_2015.3.187/compiler/lib/intel64/libifcore.a(for_lub_mgt.o)
                                        0x448 (size before relaxing)
 .eh_frame      0x00000000004d8aa8      0xa08 /opt/intel/composer_xe_2015.3.187/compiler/lib/intel64/libifcore.a(for_open.o)
                                        0xa20 (size before relaxing)
 .eh_frame      0x00000000004d94b0       0x30 /opt/intel/composer_xe_2015.3.187/compiler/lib/intel64/libifcore.a(for_preconnected_units_init.o)
                                         0x48 (size before relaxing)
 .eh_frame      0x00000000004d94e0      0x220 /opt/intel/composer_xe_2015.3.187/compiler/lib/intel64/libifcore.a(for_put.o)
                                        0x238 (size before relaxing)
 .eh_frame      0x00000000004d9700      0x608 /opt/intel/composer_xe_2015.3.187/compiler/lib/intel64/libifcore.a(for_rdir.o)
                                        0x620 (size before relaxing)
 .eh_frame      0x00000000004d9d08      0x1d0 /opt/intel/composer_xe_2015.3.187/compiler/lib/intel64/libifcore.a(for_reentrancy.o)
                                        0x1e8 (size before relaxing)
 .eh_frame      0x00000000004d9ed8      0x2c8 /opt/intel/composer_xe_2015.3.187/compiler/lib/intel64/libifcore.a(for_rewind.o)
                                        0x2e0 (size before relaxing)
 .eh_frame      0x00000000004da1a0      0x6e8 /opt/intel/composer_xe_2015.3.187/compiler/lib/intel64/libifcore.a(for_rint_fmt.o)
                                        0x700 (size before relaxing)
 .eh_frame      0x00000000004da888      0x1e8 /opt/intel/composer_xe_2015.3.187/compiler/lib/intel64/libifcore.a(for_secnds.o)
                                        0x200 (size before relaxing)
 .eh_frame      0x00000000004daa70      0x238 /opt/intel/composer_xe_2015.3.187/compiler/lib/intel64/libifcore.a(for_stop.o)
                                        0x250 (size before relaxing)
 .eh_frame      0x00000000004daca8      0x320 /opt/intel/composer_xe_2015.3.187/compiler/lib/intel64/libifcore.a(for_vm.o)
                                        0x338 (size before relaxing)
 .eh_frame      0x00000000004dafc8      0x638 /opt/intel/composer_xe_2015.3.187/compiler/lib/intel64/libifcore.a(for_wdir.o)
                                        0x650 (size before relaxing)
 .eh_frame      0x00000000004db600      0x6e8 /opt/intel/composer_xe_2015.3.187/compiler/lib/intel64/libifcore.a(for_wint_fmt.o)
                                        0x700 (size before relaxing)
 .eh_frame      0x00000000004dbce8      0x9e0 /opt/intel/composer_xe_2015.3.187/compiler/lib/intel64/libifcore.a(for_wseq.o)
                                        0x9f8 (size before relaxing)
 .eh_frame      0x00000000004dc6c8      0x9b0 /opt/intel/composer_xe_2015.3.187/compiler/lib/intel64/libifcore.a(for_wseq_fmt.o)
                                        0x9c8 (size before relaxing)
 .eh_frame      0x00000000004dd078      0xbe8 /opt/intel/composer_xe_2015.3.187/compiler/lib/intel64/libifcore.a(for_wseq_lis.o)
                                        0xc00 (size before relaxing)
 .eh_frame      0x00000000004ddc60       0xd0 /opt/intel/composer_xe_2015.3.187/compiler/lib/intel64/libifcore.a(for_90_date.o)
                                         0xe8 (size before relaxing)
 .eh_frame      0x00000000004ddd30       0xe0 /opt/intel/composer_xe_2015.3.187/compiler/lib/intel64/libifcore.a(for_90_index.o)
                                         0xf8 (size before relaxing)
 .eh_frame      0x00000000004dde10       0x58 /opt/intel/composer_xe_2015.3.187/compiler/lib/intel64/libifcore.a(for_90_trim.o)
                                         0x70 (size before relaxing)
 .eh_frame      0x00000000004dde68      0x268 /opt/intel/composer_xe_2015.3.187/compiler/lib/intel64/libifcore.a(for_f90str.o)
                                        0x280 (size before relaxing)
 .eh_frame      0x00000000004de0d0       0xa0 /opt/intel/composer_xe_2015.3.187/compiler/lib/intel64/libifcore.a(tbk_traceback.o)
                                         0xb8 (size before relaxing)
 .eh_frame      0x00000000004de170      0x758 /opt/intel/composer_xe_2015.3.187/compiler/lib/intel64/libifcore.a(for_aio.o)
                                        0x770 (size before relaxing)
 .eh_frame      0x00000000004de8c8      0x698 /opt/intel/composer_xe_2015.3.187/compiler/lib/intel64/libifcore.a(for_open_proc.o)
                                        0x6b0 (size before relaxing)
 .eh_frame      0x00000000004def60      0x180 /opt/intel/composer_xe_2015.3.187/compiler/lib/intel64/libifcore.a(for_aio_wrap.o)
                                        0x198 (size before relaxing)
 .eh_frame      0x00000000004df0e0      0x290 /opt/intel/composer_xe_2015.3.187/compiler/lib/intel64/libifcore.a(cvt_text_to_int.o)
                                        0x2a8 (size before relaxing)
 .eh_frame      0x00000000004df370       0xc8 /opt/intel/composer_xe_2015.3.187/compiler/lib/intel64/libifcore.a(cvt_vax_f.o)
                                         0xe0 (size before relaxing)
 .eh_frame      0x00000000004df438       0xc8 /opt/intel/composer_xe_2015.3.187/compiler/lib/intel64/libifcore.a(cvt_vax_d.o)
                                         0xe0 (size before relaxing)
 .eh_frame      0x00000000004df500       0xc8 /opt/intel/composer_xe_2015.3.187/compiler/lib/intel64/libifcore.a(cvt_vax_g.o)
                                         0xe0 (size before relaxing)
 .eh_frame      0x00000000004df5c8      0x1e0 /opt/intel/composer_xe_2015.3.187/compiler/lib/intel64/libifcore.a(cvt_cray.o)
                                        0x1f8 (size before relaxing)
 .eh_frame      0x00000000004df7a8       0xe0 /opt/intel/composer_xe_2015.3.187/compiler/lib/intel64/libifcore.a(cvt_ibm_short.o)
                                         0xf8 (size before relaxing)
 .eh_frame      0x00000000004df888      0x108 /opt/intel/composer_xe_2015.3.187/compiler/lib/intel64/libifcore.a(cvt_ibm_long.o)
                                        0x120 (size before relaxing)
 .eh_frame      0x00000000004df990      0x508 /opt/intel/composer_xe_2015.3.187/compiler/lib/intel64/libifcore.a(cvt_ieee_double.o)
                                        0x520 (size before relaxing)
 .eh_frame      0x00000000004dfe98      0x2a8 /opt/intel/composer_xe_2015.3.187/compiler/lib/intel64/libifcore.a(cvt_ieee_single.o)
                                        0x2c0 (size before relaxing)
 .eh_frame      0x00000000004e0140      0x220 /opt/intel/composer_xe_2015.3.187/compiler/lib/intel64/libifcore.a(for_close.o)
                                        0x238 (size before relaxing)
 .eh_frame      0x00000000004e0360       0x70 /opt/intel/composer_xe_2015.3.187/compiler/lib/intel64/libifcore.a(for_close_proc.o)
                                         0x88 (size before relaxing)
 .eh_frame      0x00000000004e03d0       0x28 /opt/intel/composer_xe_2015.3.187/compiler/lib/intel64/libifcore.a(for_default_io_sizes_env_init.o)
                                         0x40 (size before relaxing)
 .eh_frame      0x00000000004e03f8      0x1d8 /opt/intel/composer_xe_2015.3.187/compiler/lib/intel64/libifcore.a(for_desc_item.o)
                                        0x1f0 (size before relaxing)
 .eh_frame      0x00000000004e05d0      0x6a8 /opt/intel/composer_xe_2015.3.187/compiler/lib/intel64/libifcore.a(for_fmt_comp.o)
                                        0x6c0 (size before relaxing)
 .eh_frame      0x00000000004e0c78       0xf0 /opt/intel/composer_xe_2015.3.187/compiler/lib/intel64/libifcore.a(for_fmt_val.o)
                                        0x108 (size before relaxing)
 .eh_frame      0x00000000004e0d68      0x4c0 /opt/intel/composer_xe_2015.3.187/compiler/lib/intel64/libifcore.a(for_get.o)
                                        0x4d8 (size before relaxing)
 .eh_frame      0x00000000004e1228       0xa0 /opt/intel/composer_xe_2015.3.187/compiler/lib/intel64/libifcore.a(for_index.o)
                                         0xb8 (size before relaxing)
 .eh_frame      0x00000000004e12c8       0xe8 /opt/intel/composer_xe_2015.3.187/compiler/lib/intel64/libifcore.a(for_intrp_fmt.o)
                                        0x100 (size before relaxing)
 .eh_frame      0x00000000004e13b0       0xb0 /opt/intel/composer_xe_2015.3.187/compiler/lib/intel64/libifcore.a(for_need_lf.o)
                                         0xc8 (size before relaxing)
 .eh_frame      0x00000000004e1460      0x100 /opt/intel/composer_xe_2015.3.187/compiler/lib/intel64/libifcore.a(cvt_int_to_text.o)
                                        0x118 (size before relaxing)
 .eh_frame      0x00000000004e1560      0x180 /opt/intel/composer_xe_2015.3.187/compiler/lib/intel64/libifcore.a(cvt_data_to_text.o)
                                        0x198 (size before relaxing)
 .eh_frame      0x00000000004e16e0      0x140 /opt/intel/composer_xe_2015.3.187/compiler/lib/intel64/libifcore.a(cvt_log_to_text.o)
                                        0x158 (size before relaxing)
 .eh_frame      0x00000000004e1820      0x150 /opt/intel/composer_xe_2015.3.187/compiler/lib/intel64/libifcore.a(cvt_text_to_data.o)
                                        0x168 (size before relaxing)
 .eh_frame      0x00000000004e1970       0x90 /opt/intel/composer_xe_2015.3.187/compiler/lib/intel64/libifcore.a(cvt_text_to_log.o)
                                         0xa8 (size before relaxing)
 .eh_frame      0x00000000004e1a00      0x2f8 /opt/intel/composer_xe_2015.3.187/compiler/lib/intel64/libifcore.a(cvt_cvtas_t.o)
                                        0x310 (size before relaxing)
 .eh_frame      0x00000000004e1cf8      0x2f8 /opt/intel/composer_xe_2015.3.187/compiler/lib/intel64/libifcore.a(cvt_cvtas_s.o)
                                        0x310 (size before relaxing)
 .eh_frame      0x00000000004e1ff0      0x2d8 /opt/intel/composer_xe_2015.3.187/compiler/lib/intel64/libifcore.a(cvt_cvtas_x.o)
                                        0x2f0 (size before relaxing)
 .eh_frame      0x00000000004e22c8       0x90 /opt/intel/composer_xe_2015.3.187/compiler/lib/intel64/libifcore.a(cvtas_a_to_s.o)
                                         0xa8 (size before relaxing)
 .eh_frame      0x00000000004e2358       0x90 /opt/intel/composer_xe_2015.3.187/compiler/lib/intel64/libifcore.a(cvtas_a_to_t.o)
                                         0xa8 (size before relaxing)
 .eh_frame      0x00000000004e23e8       0x60 /opt/intel/composer_xe_2015.3.187/compiler/lib/intel64/libifcore.a(cvtas_s_to_a.o)
                                         0x78 (size before relaxing)
 .eh_frame      0x00000000004e2448       0x60 /opt/intel/composer_xe_2015.3.187/compiler/lib/intel64/libifcore.a(cvtas_t_to_a.o)
                                         0x78 (size before relaxing)
 .eh_frame      0x00000000004e24a8       0x18 /opt/intel/composer_xe_2015.3.187/compiler/lib/intel64/libifcore.a(cvtas_nan_s.o)
                                         0x30 (size before relaxing)
 .eh_frame      0x00000000004e24c0       0x18 /opt/intel/composer_xe_2015.3.187/compiler/lib/intel64/libifcore.a(cvtas_nan_t.o)
                                         0x30 (size before relaxing)
 .eh_frame      0x00000000004e24d8       0x90 /opt/intel/composer_xe_2015.3.187/compiler/lib/intel64/libifcore.a(cvtas_a_to_x.o)
                                         0xa8 (size before relaxing)
 .eh_frame      0x00000000004e2568       0x60 /opt/intel/composer_xe_2015.3.187/compiler/lib/intel64/libifcore.a(cvtas_x_to_a.o)
                                         0x78 (size before relaxing)
 .eh_frame      0x00000000004e25c8       0x18 /opt/intel/composer_xe_2015.3.187/compiler/lib/intel64/libifcore.a(cvtas_nan_x.o)
                                         0x30 (size before relaxing)
 .eh_frame      0x00000000004e25e0       0x20 /opt/intel/composer_xe_2015.3.187/compiler/lib/intel64/libimf.a(fetestexcept.o)
                                         0x38 (size before relaxing)
 .eh_frame      0x00000000004e2600       0x20 /opt/intel/composer_xe_2015.3.187/compiler/lib/intel64/libimf.a(log_ct.o)
                                         0x38 (size before relaxing)
 .eh_frame      0x00000000004e2620       0x20 /opt/intel/composer_xe_2015.3.187/compiler/lib/intel64/libimf.a(log_gen.o)
                                         0x38 (size before relaxing)
 .eh_frame      0x00000000004e2640       0xe8 /opt/intel/composer_xe_2015.3.187/compiler/lib/intel64/libimf.a(libm_error.o)
                                        0x100 (size before relaxing)
 .eh_frame      0x00000000004e2728       0x18 /opt/intel/composer_xe_2015.3.187/compiler/lib/intel64/libimf.a(matherrf.o)
                                         0x30 (size before relaxing)
 .eh_frame      0x00000000004e2740       0x18 /opt/intel/composer_xe_2015.3.187/compiler/lib/intel64/libimf.a(matherrl.o)
                                         0x30 (size before relaxing)
 .eh_frame      0x00000000004e2758       0x18 /opt/intel/composer_xe_2015.3.187/compiler/lib/intel64/libimf.a(matherr.o)
                                         0x30 (size before relaxing)
 .eh_frame      0x00000000004e2770       0x60 /opt/intel/composer_xe_2015.3.187/compiler/lib/intel64/libirc.a(ints2q.o)
                                         0x78 (size before relaxing)
 .eh_frame      0x00000000004e27d0       0xa8 /opt/intel/composer_xe_2015.3.187/compiler/lib/intel64/libirc.a(qcomp.o)
                                         0xc0 (size before relaxing)
 .eh_frame      0x00000000004e2878       0x48 /opt/intel/composer_xe_2015.3.187/compiler/lib/intel64/libirc.a(fp2q.o)
                                         0x60 (size before relaxing)
 .eh_frame      0x00000000004e28c0       0x88 /opt/intel/composer_xe_2015.3.187/compiler/lib/intel64/libirc.a(q2fp.o)
                                         0xa0 (size before relaxing)
 .eh_frame      0x00000000004e2948      0x1e8 /opt/intel/composer_xe_2015.3.187/compiler/lib/intel64/libirc.a(tbk_display.o)
                                        0x200 (size before relaxing)
 .eh_frame      0x00000000004e2b30      0x470 /opt/intel/composer_xe_2015.3.187/compiler/lib/intel64/libirc.a(tbk_backtrace.o)
                                        0x488 (size before relaxing)
 .eh_frame      0x00000000004e2fa0      0x1a8 /opt/intel/composer_xe_2015.3.187/compiler/lib/intel64/libirc.a(cpu_feature_disp.o)
                                        0x1c0 (size before relaxing)
 .eh_frame      0x00000000004e3148       0x18 /opt/intel/composer_xe_2015.3.187/compiler/lib/intel64/libirc.a(ia32_memcmp.o)
                                         0x30 (size before relaxing)
 .eh_frame      0x00000000004e3160       0x60 /opt/intel/composer_xe_2015.3.187/compiler/lib/intel64/libirc.a(fastmemcpy.o)
                                         0x78 (size before relaxing)
 .eh_frame      0x00000000004e31c0       0x48 /opt/intel/composer_xe_2015.3.187/compiler/lib/intel64/libirc.a(fastmemmove.o)
                                         0x60 (size before relaxing)
 .eh_frame      0x00000000004e3208       0x30 /opt/intel/composer_xe_2015.3.187/compiler/lib/intel64/libirc.a(fastmemset.o)
                                         0x48 (size before relaxing)
 .eh_frame      0x00000000004e3238       0x80 /opt/intel/composer_xe_2015.3.187/compiler/lib/intel64/libirc.a(new_proc_init.o)
                                         0x98 (size before relaxing)
 .eh_frame      0x00000000004e32b8      0xb30 /opt/intel/composer_xe_2015.3.187/compiler/lib/intel64/libirc.a(ia32_addsubq.o)
                                        0xb48 (size before relaxing)
 .eh_frame      0x00000000004e3de8      0x570 /opt/intel/composer_xe_2015.3.187/compiler/lib/intel64/libirc.a(ia32_divq.o)
                                        0x588 (size before relaxing)
 .eh_frame      0x00000000004e4358       0x18 /opt/intel/composer_xe_2015.3.187/compiler/lib/intel64/libirc.a(sse2_strcpy.o)
                                         0x30 (size before relaxing)
 .eh_frame      0x00000000004e4370       0x18 /opt/intel/composer_xe_2015.3.187/compiler/lib/intel64/libirc.a(sse2_strncpy.o)
                                         0x30 (size before relaxing)
 .eh_frame      0x00000000004e4388       0x18 /opt/intel/composer_xe_2015.3.187/compiler/lib/intel64/libirc.a(sse2_strlen.o)
                                         0x30 (size before relaxing)
 .eh_frame      0x00000000004e43a0       0x18 /opt/intel/composer_xe_2015.3.187/compiler/lib/intel64/libirc.a(sse2_strchr.o)
                                         0x30 (size before relaxing)
 .eh_frame      0x00000000004e43b8       0xd8 /opt/intel/composer_xe_2015.3.187/compiler/lib/intel64/libirc.a(sse2_strncmp.o)
                                         0xf0 (size before relaxing)
 .eh_frame      0x00000000004e4490       0x58 /opt/intel/composer_xe_2015.3.187/compiler/lib/intel64/libirc.a(sse2_strcat.o)
                                         0x70 (size before relaxing)
 .eh_frame      0x00000000004e44e8       0x68 /opt/intel/composer_xe_2015.3.187/compiler/lib/intel64/libirc.a(sse2_strncat.o)
                                         0x80 (size before relaxing)
 .eh_frame      0x00000000004e4550       0x18 /opt/intel/composer_xe_2015.3.187/compiler/lib/intel64/libirc.a(fast_memcpy_pp.o)
                                         0x30 (size before relaxing)
 .eh_frame      0x00000000004e4568       0x18 /opt/intel/composer_xe_2015.3.187/compiler/lib/intel64/libirc.a(fast_memset_pp.o)
                                         0x30 (size before relaxing)
 .eh_frame      0x00000000004e4580       0x18 /opt/intel/composer_xe_2015.3.187/compiler/lib/intel64/libirc.a(intel_ssse3_memcpy.o)
                                         0x30 (size before relaxing)
 .eh_frame      0x00000000004e4598       0x18 /opt/intel/composer_xe_2015.3.187/compiler/lib/intel64/libirc.a(intel_ssse3_rep_memcpy.o)
                                         0x30 (size before relaxing)
 .eh_frame      0x00000000004e45b0       0x18 /opt/intel/composer_xe_2015.3.187/compiler/lib/intel64/libirc.a(intel_ssse3_memmove.o)
                                         0x30 (size before relaxing)
 .eh_frame      0x00000000004e45c8       0x18 /opt/intel/composer_xe_2015.3.187/compiler/lib/intel64/libirc.a(intel_ssse3_rep_memmove.o)
                                         0x30 (size before relaxing)
 .eh_frame      0x00000000004e45e0      0x108 /opt/intel/composer_xe_2015.3.187/compiler/lib/intel64/libirc.a(irc_msg_support.o)
                                        0x120 (size before relaxing)
 .eh_frame      0x00000000004e46e8       0xe0 /opt/intel/composer_xe_2015.3.187/compiler/lib/intel64/libirc.a(fast_mem_ops.o)
                                         0xf8 (size before relaxing)
 .eh_frame      0x00000000004e47c8       0x68 /opt/intel/composer_xe_2015.3.187/compiler/lib/intel64/libirc.a(proc_init_utils.o)
                                         0x80 (size before relaxing)
 .eh_frame      0x00000000004e4830       0x40 /usr/lib64/libc_nonshared.a(elf-init.oS)
                                         0x58 (size before relaxing)
 .eh_frame      0x00000000004e4870        0x4 /opt/gcc/4.9.2/snos/lib/gcc/x86_64-suse-linux/4.9.2/crtend.o

.gcc_except_table
 *(.gcc_except_table .gcc_except_table.*)

.exception_ranges
 *(.exception_ranges .exception_ranges*)
                0x00000000004e4874                . = (ALIGN (0x200000) - ((0x200000 - .) & 0x1fffff))
                0x00000000006e57fc                . = DATA_SEGMENT_ALIGN (0x200000, 0x1000)

.eh_frame
 *(.eh_frame)

.gcc_except_table
 *(.gcc_except_table .gcc_except_table.*)

.exception_ranges
 *(.exception_ranges .exception_ranges*)

.tdata
 *(.tdata .tdata.* .gnu.linkonce.td.*)

.tbss
 *(.tbss .tbss.* .gnu.linkonce.tb.*)
 *(.tcommon)

.preinit_array  0x00000000006e57fc        0x0
                0x00000000006e57fc                PROVIDE (__preinit_array_start, .)
 *(.preinit_array)
                0x00000000006e57fc                PROVIDE (__preinit_array_end, .)

.init_array     0x00000000006e57fc        0x0
                0x00000000006e57fc                PROVIDE (__init_array_start, .)
 *(SORT(.init_array.*))
 *(.init_array)
                0x00000000006e57fc                PROVIDE (__init_array_end, .)

.fini_array     0x00000000006e57fc        0x0
                0x00000000006e57fc                PROVIDE (__fini_array_start, .)
 *(SORT(.fini_array.*))
 *(.fini_array)
                0x00000000006e57fc                PROVIDE (__fini_array_end, .)

.ctors          0x00000000006e5800       0x18
 *crtbegin.o(.ctors)
 .ctors         0x00000000006e5800        0x8 /opt/gcc/4.9.2/snos/lib/gcc/x86_64-suse-linux/4.9.2/crtbegin.o
 *crtbegin?.o(.ctors)
 *(EXCLUDE_FILE(*crtend?.o *crtend.o) .ctors)
 .ctors         0x00000000006e5808        0x8 /opt/intel/composer_xe_2015.3.187/compiler/lib/intel64/libirc.a(fast_mem_ops.o)
 *(SORT(.ctors.*))
 *(.ctors)
 .ctors         0x00000000006e5810        0x8 /opt/gcc/4.9.2/snos/lib/gcc/x86_64-suse-linux/4.9.2/crtend.o

.dtors          0x00000000006e5818       0x10
 *crtbegin.o(.dtors)
 .dtors         0x00000000006e5818        0x8 /opt/gcc/4.9.2/snos/lib/gcc/x86_64-suse-linux/4.9.2/crtbegin.o
 *crtbegin?.o(.dtors)
 *(EXCLUDE_FILE(*crtend?.o *crtend.o) .dtors)
 *(SORT(.dtors.*))
 *(.dtors)
 .dtors         0x00000000006e5820        0x8 /opt/gcc/4.9.2/snos/lib/gcc/x86_64-suse-linux/4.9.2/crtend.o
                0x00000000006e5820                __DTOR_END__

.jcr            0x00000000006e5828        0x8
 *(.jcr)
 .jcr           0x00000000006e5828        0x0 /opt/gcc/4.9.2/snos/lib/gcc/x86_64-suse-linux/4.9.2/crtbegin.o
 .jcr           0x00000000006e5828        0x8 /opt/gcc/4.9.2/snos/lib/gcc/x86_64-suse-linux/4.9.2/crtend.o

.data.rel.ro    0x00000000006e5840      0x480
 *(.data.rel.ro.local* .gnu.linkonce.d.rel.ro.local.*)
 .data.rel.ro.local
                0x00000000006e5840       0xa0 /opt/intel/composer_xe_2015.3.187/compiler/lib/intel64/libimf.a(libm_error.o)
 .data.rel.ro.local
                0x00000000006e58e0      0x3e0 /opt/intel/composer_xe_2015.3.187/compiler/lib/intel64/libirc.a(irc_msg_support.o)
 *(.data.rel.ro .data.rel.ro.* .gnu.linkonce.d.rel.ro.*)

.dynamic        0x00000000006e5cc0      0x1e0
 *(.dynamic)
 .dynamic       0x00000000006e5cc0      0x1e0 /usr/lib/../lib64/crt1.o
                0x00000000006e5cc0                _DYNAMIC

.got            0x00000000006e5ea0      0x158
 *(.got)
 .got           0x00000000006e5ea0      0x158 /usr/lib/../lib64/crt1.o
 *(.igot)
                0x00000000006e6fe8                . = DATA_SEGMENT_RELRO_END (., (SIZEOF (.got.plt) >= 0x18)?0x18:0x0)

.got.plt        0x00000000006e6000      0x328
 *(.got.plt)
 .got.plt       0x00000000006e6000      0x328 /usr/lib/../lib64/crt1.o
                0x00000000006e6000                _GLOBAL_OFFSET_TABLE_
 *(.igot.plt)
 .igot.plt      0x0000000000000000        0x0 /usr/lib/../lib64/crt1.o

.data           0x00000000006e6340     0x6a00
 *(.data .data.* .gnu.linkonce.d.*)
 .data          0x00000000006e6340        0x4 /usr/lib/../lib64/crt1.o
                0x00000000006e6340                data_start
                0x00000000006e6340                __data_start
 .data          0x00000000006e6344        0x0 /usr/lib/../lib64/crti.o
 *fill*         0x00000000006e6344        0x4 
 .data          0x00000000006e6348        0x8 /opt/gcc/4.9.2/snos/lib/gcc/x86_64-suse-linux/4.9.2/crtbegin.o
                0x00000000006e6348                __dso_handle
 .data          0x00000000006e6350        0x0 /opt/intel/composer_xe_2015.3.187/compiler/lib/intel64/for_main.o
 *fill*         0x00000000006e6350       0x10 
 .data          0x00000000006e6360      0xd80 fxcompoz.o
 .data          0x00000000006e70e0        0x0 close99.o
 .data          0x00000000006e70e0     0x1d60 fxcompozlib.o
 .data          0x00000000006e8e40        0x0 open99.o
 .data          0x00000000006e8e40        0x0 rd1byt99.o
 .data          0x00000000006e8e40        0x0 reposi99.o
 .data          0x00000000006e8e40        0x0 rewind99.o
 .data          0x00000000006e8e40        0x0 wheren99.o
 .data          0x00000000006e8e40        0x8 /gpfs/hps/emc/global/noscrub/Boi.Vuong/lib/graphics/v2.0.0/intel/libgph_v2.0.0_8.a(bin2ch.o)
 *fill*         0x00000000006e8e48       0x18 
 .data          0x00000000006e8e60      0x180 /gpfs/hps/emc/global/noscrub/Boi.Vuong/lib/graphics/v2.0.0/intel/libgph_v2.0.0_8.a(cdc2asc.o)
 .data          0x00000000006e8fe0      0x700 /gpfs/hps/emc/global/noscrub/Boi.Vuong/lib/graphics/v2.0.0/intel/libgph_v2.0.0_8.a(consol.o)
 .data          0x00000000006e96e0        0x4 /gpfs/hps/emc/global/noscrub/Boi.Vuong/lib/graphics/v2.0.0/intel/libgph_v2.0.0_8.a(xasc2asc.o)
 *fill*         0x00000000006e96e4        0x4 
 .data          0x00000000006e96e8        0x8 /gpfs/hps/emc/global/noscrub/Boi.Vuong/lib/graphics/v2.0.0/intel/libutil_v2.0.0.a(sbytesccs.o)
 .data          0x00000000006e96f0        0x0 /gpfs/hps/emc/global/noscrub/Boi.Vuong/lib/graphics/v2.0.0/intel/libutil_v2.0.0.a(swap_bytes_in_place.o)
 .data          0x00000000006e96f0        0x0 /gpfs/hps/nco/ops/nwprod/lib/w3emc/v2.2.0/intel/libw3emc_v2.2.0_8.a(mova2i.o)
 .data          0x00000000006e96f0        0x0 /gpfs/hps/nco/ops/nwprod/lib/w3nco/v2.0.6/intel/libw3nco_v2.0.6_8.a(errexit.o)
 .data          0x00000000006e96f0        0x8 /gpfs/hps/nco/ops/nwprod/lib/w3nco/v2.0.6/intel/libw3nco_v2.0.6_8.a(gbytes.o)
 *fill*         0x00000000006e96f8        0x8 
 .data          0x00000000006e9700      0x160 /gpfs/hps/nco/ops/nwprod/lib/w3nco/v2.0.6/intel/libw3nco_v2.0.6_8.a(w3as00.o)
 .data          0x00000000006e9860        0x0 /gpfs/hps/nco/ops/nwprod/lib/w3nco/v2.0.6/intel/libw3nco_v2.0.6_8.a(w3fi01.o)
 .data          0x00000000006e9860       0x14 /gpfs/hps/nco/ops/nwprod/lib/w3nco/v2.0.6/intel/libw3nco_v2.0.6_8.a(w3locdat.o)
 *fill*         0x00000000006e9874        0xc 
 .data          0x00000000006e9880      0x640 /gpfs/hps/nco/ops/nwprod/lib/w3nco/v2.0.6/intel/libw3nco_v2.0.6_8.a(w3tagb.o)
 .data          0x00000000006e9ec0       0x14 /gpfs/hps/nco/ops/nwprod/lib/w3nco/v2.0.6/intel/libw3nco_v2.0.6_8.a(w3utcdat.o)
 .data          0x00000000006e9ed4        0x0 /gpfs/hps/nco/ops/nwprod/lib/w3nco/v2.0.6/intel/libw3nco_v2.0.6_8.a(xmovex.o)
 .data          0x00000000006e9ed4        0x0 /gpfs/hps/nco/ops/nwprod/lib/w3nco/v2.0.6/intel/libw3nco_v2.0.6_8.a(summary.o)
 .data          0x00000000006e9ed4        0x0 /gpfs/hps/nco/ops/nwprod/lib/w3nco/v2.0.6/intel/libw3nco_v2.0.6_8.a(iw3jdn.o)
 .data          0x00000000006e9ed4        0x0 /gpfs/hps/nco/ops/nwprod/lib/w3nco/v2.0.6/intel/libw3nco_v2.0.6_8.a(w3doxdat.o)
 .data          0x00000000006e9ed4        0x0 /gpfs/hps/nco/ops/nwprod/lib/w3nco/v2.0.6/intel/libw3nco_v2.0.6_8.a(w3fs26.o)
 .data          0x00000000006e9ed4        0x0 /opt/intel/composer_xe_2015.3.187/compiler/lib/intel64/libifport.a(getenv.o)
 *fill*         0x00000000006e9ed4        0xc 
 .data          0x00000000006e9ee0     0x1e80 /opt/intel/composer_xe_2015.3.187/compiler/lib/intel64/libifcore.a(for_diags_intel.o)
 .data          0x00000000006ebd60        0x0 /opt/intel/composer_xe_2015.3.187/compiler/lib/intel64/libifcore.a(for_endfile.o)
 .data          0x00000000006ebd60        0x0 /opt/intel/composer_xe_2015.3.187/compiler/lib/intel64/libifcore.a(for_exit.o)
 .data          0x00000000006ebd60        0x0 /opt/intel/composer_xe_2015.3.187/compiler/lib/intel64/libifcore.a(for_exit_handler.o)
 .data          0x00000000006ebd60        0x0 /opt/intel/composer_xe_2015.3.187/compiler/lib/intel64/libifcore.a(for_getarg.o)
 .data          0x00000000006ebd60       0x10 /opt/intel/composer_xe_2015.3.187/compiler/lib/intel64/libifcore.a(for_init.o)
                0x00000000006ebd60                for__segv_default_msg
                0x00000000006ebd68                for__l_current_arg
 .data          0x00000000006ebd70        0x0 /opt/intel/composer_xe_2015.3.187/compiler/lib/intel64/libifcore.a(for_io_util.o)
 .data          0x00000000006ebd70        0xc /opt/intel/composer_xe_2015.3.187/compiler/lib/intel64/libifcore.a(for_lub_mgt.o)
 .data          0x00000000006ebd7c        0x0 /opt/intel/composer_xe_2015.3.187/compiler/lib/intel64/libifcore.a(for_open.o)
 .data          0x00000000006ebd7c        0x0 /opt/intel/composer_xe_2015.3.187/compiler/lib/intel64/libifcore.a(for_preconnected_units_init.o)
 .data          0x00000000006ebd7c        0x0 /opt/intel/composer_xe_2015.3.187/compiler/lib/intel64/libifcore.a(for_put.o)
 .data          0x00000000006ebd7c        0x0 /opt/intel/composer_xe_2015.3.187/compiler/lib/intel64/libifcore.a(for_rdir.o)
 *fill*         0x00000000006ebd7c        0x4 
 .data          0x00000000006ebd80      0x140 /opt/intel/composer_xe_2015.3.187/compiler/lib/intel64/libifcore.a(for_reentrancy.o)
                0x00000000006ebd80                for__static_threadstor_private
 .data          0x00000000006ebec0        0x0 /opt/intel/composer_xe_2015.3.187/compiler/lib/intel64/libifcore.a(for_rewind.o)
 .data          0x00000000006ebec0        0x0 /opt/intel/composer_xe_2015.3.187/compiler/lib/intel64/libifcore.a(for_rint_fmt.o)
 .data          0x00000000006ebec0        0x0 /opt/intel/composer_xe_2015.3.187/compiler/lib/intel64/libifcore.a(for_secnds.o)
 .data          0x00000000006ebec0       0x80 /opt/intel/composer_xe_2015.3.187/compiler/lib/intel64/libifcore.a(for_stop.o)
 .data          0x00000000006ebf40        0x0 /opt/intel/composer_xe_2015.3.187/compiler/lib/intel64/libifcore.a(for_vm.o)
 .data          0x00000000006ebf40        0x0 /opt/intel/composer_xe_2015.3.187/compiler/lib/intel64/libifcore.a(for_wdir.o)
 .data          0x00000000006ebf40        0x0 /opt/intel/composer_xe_2015.3.187/compiler/lib/intel64/libifcore.a(for_wint_fmt.o)
 .data          0x00000000006ebf40        0x0 /opt/intel/composer_xe_2015.3.187/compiler/lib/intel64/libifcore.a(for_wseq.o)
 .data          0x00000000006ebf40        0x0 /opt/intel/composer_xe_2015.3.187/compiler/lib/intel64/libifcore.a(for_wseq_fmt.o)
 .data          0x00000000006ebf40        0x0 /opt/intel/composer_xe_2015.3.187/compiler/lib/intel64/libifcore.a(for_wseq_lis.o)
 .data          0x00000000006ebf40        0x0 /opt/intel/composer_xe_2015.3.187/compiler/lib/intel64/libifcore.a(for_90_date.o)
 .data          0x00000000006ebf40        0x0 /opt/intel/composer_xe_2015.3.187/compiler/lib/intel64/libifcore.a(for_90_index.o)
 .data          0x00000000006ebf40        0x0 /opt/intel/composer_xe_2015.3.187/compiler/lib/intel64/libifcore.a(for_90_trim.o)
 .data          0x00000000006ebf40        0x0 /opt/intel/composer_xe_2015.3.187/compiler/lib/intel64/libifcore.a(for_f90str.o)
 .data          0x00000000006ebf40        0x0 /opt/intel/composer_xe_2015.3.187/compiler/lib/intel64/libifcore.a(tbk_traceback.o)
 .data          0x00000000006ebf40        0x4 /opt/intel/composer_xe_2015.3.187/compiler/lib/intel64/libifcore.a(for_aio.o)
 .data          0x00000000006ebf44        0x0 /opt/intel/composer_xe_2015.3.187/compiler/lib/intel64/libifcore.a(for_open_proc.o)
 .data          0x00000000006ebf44        0x0 /opt/intel/composer_xe_2015.3.187/compiler/lib/intel64/libifcore.a(for_aio_wrap.o)
 .data          0x00000000006ebf44        0x0 /opt/intel/composer_xe_2015.3.187/compiler/lib/intel64/libifcore.a(cvt_text_to_int.o)
 .data          0x00000000006ebf44        0x0 /opt/intel/composer_xe_2015.3.187/compiler/lib/intel64/libifcore.a(cvt_vax_f.o)
 .data          0x00000000006ebf44        0x0 /opt/intel/composer_xe_2015.3.187/compiler/lib/intel64/libifcore.a(cvt_vax_d.o)
 .data          0x00000000006ebf44        0x0 /opt/intel/composer_xe_2015.3.187/compiler/lib/intel64/libifcore.a(cvt_vax_g.o)
 .data          0x00000000006ebf44        0x0 /opt/intel/composer_xe_2015.3.187/compiler/lib/intel64/libifcore.a(cvt_cray.o)
 .data          0x00000000006ebf44        0x0 /opt/intel/composer_xe_2015.3.187/compiler/lib/intel64/libifcore.a(cvt_ibm_short.o)
 .data          0x00000000006ebf44        0x0 /opt/intel/composer_xe_2015.3.187/compiler/lib/intel64/libifcore.a(cvt_ibm_long.o)
 .data          0x00000000006ebf44        0x0 /opt/intel/composer_xe_2015.3.187/compiler/lib/intel64/libifcore.a(cvt_ieee_double.o)
 .data          0x00000000006ebf44        0x0 /opt/intel/composer_xe_2015.3.187/compiler/lib/intel64/libifcore.a(cvt_ieee_single.o)
 .data          0x00000000006ebf44        0x0 /opt/intel/composer_xe_2015.3.187/compiler/lib/intel64/libifcore.a(for_close.o)
 .data          0x00000000006ebf44        0x0 /opt/intel/composer_xe_2015.3.187/compiler/lib/intel64/libifcore.a(for_close_proc.o)
 .data          0x00000000006ebf44        0x0 /opt/intel/composer_xe_2015.3.187/compiler/lib/intel64/libifcore.a(for_default_io_sizes_env_init.o)
 .data          0x00000000006ebf44        0x0 /opt/intel/composer_xe_2015.3.187/compiler/lib/intel64/libifcore.a(for_desc_item.o)
 .data          0x00000000006ebf44        0x0 /opt/intel/composer_xe_2015.3.187/compiler/lib/intel64/libifcore.a(for_fmt_comp.o)
 .data          0x00000000006ebf44        0x0 /opt/intel/composer_xe_2015.3.187/compiler/lib/intel64/libifcore.a(for_fmt_val.o)
 .data          0x00000000006ebf44        0x0 /opt/intel/composer_xe_2015.3.187/compiler/lib/intel64/libifcore.a(for_get.o)
 .data          0x00000000006ebf44        0x0 /opt/intel/composer_xe_2015.3.187/compiler/lib/intel64/libifcore.a(for_index.o)
 .data          0x00000000006ebf44        0x0 /opt/intel/composer_xe_2015.3.187/compiler/lib/intel64/libifcore.a(for_intrp_fmt.o)
 .data          0x00000000006ebf44        0x0 /opt/intel/composer_xe_2015.3.187/compiler/lib/intel64/libifcore.a(for_ldir_wfs.o)
 .data          0x00000000006ebf44        0x0 /opt/intel/composer_xe_2015.3.187/compiler/lib/intel64/libifcore.a(for_need_lf.o)
 .data          0x00000000006ebf44        0x0 /opt/intel/composer_xe_2015.3.187/compiler/lib/intel64/libifcore.a(cvt__globals.o)
 .data          0x00000000006ebf44        0x0 /opt/intel/composer_xe_2015.3.187/compiler/lib/intel64/libifcore.a(cvt_int_to_text.o)
 .data          0x00000000006ebf44        0x0 /opt/intel/composer_xe_2015.3.187/compiler/lib/intel64/libifcore.a(cvt_data_to_text.o)
 .data          0x00000000006ebf44        0x0 /opt/intel/composer_xe_2015.3.187/compiler/lib/intel64/libifcore.a(cvt_log_to_text.o)
 .data          0x00000000006ebf44        0x0 /opt/intel/composer_xe_2015.3.187/compiler/lib/intel64/libifcore.a(cvt_text_to_data.o)
 .data          0x00000000006ebf44        0x0 /opt/intel/composer_xe_2015.3.187/compiler/lib/intel64/libifcore.a(cvt_text_to_log.o)
 .data          0x00000000006ebf44        0x0 /opt/intel/composer_xe_2015.3.187/compiler/lib/intel64/libifcore.a(cvt_cvtas_t.o)
 .data          0x00000000006ebf44        0x0 /opt/intel/composer_xe_2015.3.187/compiler/lib/intel64/libifcore.a(cvt_cvtas_s.o)
 .data          0x00000000006ebf44        0x0 /opt/intel/composer_xe_2015.3.187/compiler/lib/intel64/libifcore.a(cvt_cvtas_x.o)
 .data          0x00000000006ebf44        0x0 /opt/intel/composer_xe_2015.3.187/compiler/lib/intel64/libifcore.a(cvtas_a_to_s.o)
 .data          0x00000000006ebf44        0x0 /opt/intel/composer_xe_2015.3.187/compiler/lib/intel64/libifcore.a(cvtas_a_to_t.o)
 .data          0x00000000006ebf44        0x0 /opt/intel/composer_xe_2015.3.187/compiler/lib/intel64/libifcore.a(cvtas_s_to_a.o)
 .data          0x00000000006ebf44        0x0 /opt/intel/composer_xe_2015.3.187/compiler/lib/intel64/libifcore.a(cvtas_t_to_a.o)
 .data          0x00000000006ebf44        0x0 /opt/intel/composer_xe_2015.3.187/compiler/lib/intel64/libifcore.a(cvtas_nan_s.o)
 .data          0x00000000006ebf44        0x0 /opt/intel/composer_xe_2015.3.187/compiler/lib/intel64/libifcore.a(cvtas_nan_t.o)
 .data          0x00000000006ebf44        0x0 /opt/intel/composer_xe_2015.3.187/compiler/lib/intel64/libifcore.a(cvtas_a_to_x.o)
 .data          0x00000000006ebf44        0x0 /opt/intel/composer_xe_2015.3.187/compiler/lib/intel64/libifcore.a(cvtas_x_to_a.o)
 .data          0x00000000006ebf44        0x0 /opt/intel/composer_xe_2015.3.187/compiler/lib/intel64/libifcore.a(cvtas_nan_x.o)
 .data          0x00000000006ebf44        0x0 /opt/intel/composer_xe_2015.3.187/compiler/lib/intel64/libifcore.a(cvtas_globals.o)
 .data          0x00000000006ebf44        0x0 /opt/intel/composer_xe_2015.3.187/compiler/lib/intel64/libifcore.a(cvtas_pow_ten_53.o)
 .data          0x00000000006ebf44        0x0 /opt/intel/composer_xe_2015.3.187/compiler/lib/intel64/libifcore.a(cvtas_pow_ten_64.o)
 .data          0x00000000006ebf44        0x0 /opt/intel/composer_xe_2015.3.187/compiler/lib/intel64/libifcore.a(cvtas_pow_ten_128.o)
 .data          0x00000000006ebf44        0x0 /opt/intel/composer_xe_2015.3.187/compiler/lib/intel64/libimf.a(fetestexcept.o)
 .data          0x00000000006ebf44        0x0 /opt/intel/composer_xe_2015.3.187/compiler/lib/intel64/libimf.a(log_stub.o)
 .data          0x00000000006ebf44        0x0 /opt/intel/composer_xe_2015.3.187/compiler/lib/intel64/libimf.a(log_ct.o)
 .data          0x00000000006ebf44        0x0 /opt/intel/composer_xe_2015.3.187/compiler/lib/intel64/libimf.a(log_gen.o)
 *fill*         0x00000000006ebf44       0x1c 
 .data          0x00000000006ebf60      0x3c0 /opt/intel/composer_xe_2015.3.187/compiler/lib/intel64/libimf.a(libm_error.o)
                0x00000000006ec300                __libm_pmatherrf
                0x00000000006ec308                __libm_pmatherr
                0x00000000006ec310                __libm_pmatherrl
                0x00000000006ec31c                _LIB_VERSIONIMF
 .data          0x00000000006ec320        0x0 /opt/intel/composer_xe_2015.3.187/compiler/lib/intel64/libimf.a(matherrf.o)
 .data          0x00000000006ec320        0x0 /opt/intel/composer_xe_2015.3.187/compiler/lib/intel64/libimf.a(matherrl.o)
 .data          0x00000000006ec320        0x0 /opt/intel/composer_xe_2015.3.187/compiler/lib/intel64/libimf.a(matherr.o)
 .data          0x00000000006ec320        0x0 /opt/intel/composer_xe_2015.3.187/compiler/lib/intel64/libirc.a(ints2q.o)
 .data          0x00000000006ec320        0x0 /opt/intel/composer_xe_2015.3.187/compiler/lib/intel64/libirc.a(qcomp.o)
 .data          0x00000000006ec320        0x0 /opt/intel/composer_xe_2015.3.187/compiler/lib/intel64/libirc.a(fp2q.o)
 .data          0x00000000006ec320       0x28 /opt/intel/composer_xe_2015.3.187/compiler/lib/intel64/libirc.a(q2fp.o)
 .data          0x00000000006ec348        0x0 /opt/intel/composer_xe_2015.3.187/compiler/lib/intel64/libirc.a(tbk_display.o)
 .data          0x00000000006ec348        0x0 /opt/intel/composer_xe_2015.3.187/compiler/lib/intel64/libirc.a(tbk_backtrace.o)
 .data          0x00000000006ec348        0x0 /opt/intel/composer_xe_2015.3.187/compiler/lib/intel64/libirc.a(cpu_feature_disp.o)
 .data          0x00000000006ec348        0x0 /opt/intel/composer_xe_2015.3.187/compiler/lib/intel64/libirc.a(ia32_memcmp.o)
 .data          0x00000000006ec348        0x0 /opt/intel/composer_xe_2015.3.187/compiler/lib/intel64/libirc.a(fastmemcpy.o)
 .data          0x00000000006ec348        0x0 /opt/intel/composer_xe_2015.3.187/compiler/lib/intel64/libirc.a(fastmemmove.o)
 .data          0x00000000006ec348        0x0 /opt/intel/composer_xe_2015.3.187/compiler/lib/intel64/libirc.a(fastmemset.o)
 *fill*         0x00000000006ec348       0x18 
 .data          0x00000000006ec360      0x160 /opt/intel/composer_xe_2015.3.187/compiler/lib/intel64/libirc.a(new_proc_init.o)
 .data          0x00000000006ec4c0       0x28 /opt/intel/composer_xe_2015.3.187/compiler/lib/intel64/libirc.a(ia32_addsubq.o)
 .data          0x00000000006ec4e8       0x30 /opt/intel/composer_xe_2015.3.187/compiler/lib/intel64/libirc.a(ia32_divq.o)
 .data          0x00000000006ec518        0x0 /opt/intel/composer_xe_2015.3.187/compiler/lib/intel64/libirc.a(sse2_strcpy.o)
 .data          0x00000000006ec518        0x0 /opt/intel/composer_xe_2015.3.187/compiler/lib/intel64/libirc.a(sse2_strncpy.o)
 .data          0x00000000006ec518        0x0 /opt/intel/composer_xe_2015.3.187/compiler/lib/intel64/libirc.a(sse2_strlen.o)
 .data          0x00000000006ec518        0x0 /opt/intel/composer_xe_2015.3.187/compiler/lib/intel64/libirc.a(sse2_strchr.o)
 .data          0x00000000006ec518        0x0 /opt/intel/composer_xe_2015.3.187/compiler/lib/intel64/libirc.a(sse2_strncmp.o)
 .data          0x00000000006ec518        0x0 /opt/intel/composer_xe_2015.3.187/compiler/lib/intel64/libirc.a(sse2_strcat.o)
 .data          0x00000000006ec518        0x0 /opt/intel/composer_xe_2015.3.187/compiler/lib/intel64/libirc.a(sse2_strncat.o)
 .data          0x00000000006ec518        0x0 /opt/intel/composer_xe_2015.3.187/compiler/lib/intel64/libirc.a(fast_memcpy_pp.o)
 .data          0x00000000006ec518        0x0 /opt/intel/composer_xe_2015.3.187/compiler/lib/intel64/libirc.a(fast_memset_pp.o)
 .data          0x00000000006ec518        0x0 /opt/intel/composer_xe_2015.3.187/compiler/lib/intel64/libirc.a(intel_ssse3_memcpy.o)
 .data          0x00000000006ec518        0x0 /opt/intel/composer_xe_2015.3.187/compiler/lib/intel64/libirc.a(intel_ssse3_rep_memcpy.o)
 .data          0x00000000006ec518        0x0 /opt/intel/composer_xe_2015.3.187/compiler/lib/intel64/libirc.a(intel_ssse3_memmove.o)
 .data          0x00000000006ec518        0x0 /opt/intel/composer_xe_2015.3.187/compiler/lib/intel64/libirc.a(intel_ssse3_rep_memmove.o)
 .data          0x00000000006ec518        0x8 /opt/intel/composer_xe_2015.3.187/compiler/lib/intel64/libirc.a(irc_msg_support.o)
 .data          0x00000000006ec520      0x820 /opt/intel/composer_xe_2015.3.187/compiler/lib/intel64/libirc.a(fast_mem_ops.o)
                0x00000000006ecd20                __libirc_largest_cache_size
                0x00000000006ecd24                __libirc_largest_cache_size_half
                0x00000000006ecd28                __libirc_data_cache_size
                0x00000000006ecd2c                __libirc_data_cache_size_half
 .data          0x00000000006ecd40        0x0 /opt/intel/composer_xe_2015.3.187/compiler/lib/intel64/libirc.a(proc_init_utils.o)
 .data          0x00000000006ecd40        0x0 /usr/lib64/libc_nonshared.a(elf-init.oS)
 .data          0x00000000006ecd40        0x0 /opt/gcc/4.9.2/snos/lib/gcc/x86_64-suse-linux/4.9.2/crtend.o
 .data          0x00000000006ecd40        0x0 /usr/lib/../lib64/crtn.o

.tm_clone_table
                0x00000000006ecd40        0x0
 .tm_clone_table
                0x00000000006ecd40        0x0 /opt/gcc/4.9.2/snos/lib/gcc/x86_64-suse-linux/4.9.2/crtbegin.o
 .tm_clone_table
                0x00000000006ecd40        0x0 /opt/gcc/4.9.2/snos/lib/gcc/x86_64-suse-linux/4.9.2/crtend.o

.data1
 *(.data1)
                0x00000000006ecd40                _edata = .
                0x00000000006ecd40                PROVIDE (edata, .)
                0x00000000006ecd40                . = .
                0x00000000006ecd40                __bss_start = .

.bss            0x00000000006ecd40   0x1d7fc0
 *(.dynbss)
 .dynbss        0x00000000006ecd40       0x18 /usr/lib/../lib64/crt1.o
                0x00000000006ecd40                stdout@@GLIBC_2.2.5
                0x00000000006ecd48                stdin@@GLIBC_2.2.5
                0x00000000006ecd50                stderr@@GLIBC_2.2.5
 *(.bss .bss.* .gnu.linkonce.b.*)
 .bss           0x00000000006ecd58        0x0 /usr/lib/../lib64/crt1.o
 .bss           0x00000000006ecd58        0x0 /usr/lib/../lib64/crti.o
 .bss           0x00000000006ecd58       0x10 /opt/gcc/4.9.2/snos/lib/gcc/x86_64-suse-linux/4.9.2/crtbegin.o
 .bss           0x00000000006ecd68        0x0 /opt/intel/composer_xe_2015.3.187/compiler/lib/intel64/for_main.o
 *fill*         0x00000000006ecd68       0x18 
 .bss           0x00000000006ecd80     0x5300 fxcompoz.o
 .bss           0x00000000006f2080        0x0 close99.o
 .bss           0x00000000006f2080     0x7560 fxcompozlib.o
 .bss           0x00000000006f95e0        0x0 open99.o
 .bss           0x00000000006f95e0        0x0 rd1byt99.o
 .bss           0x00000000006f95e0        0x0 reposi99.o
 .bss           0x00000000006f95e0        0x0 rewind99.o
 .bss           0x00000000006f95e0        0x0 wheren99.o
 .bss           0x00000000006f95e0       0x20 /gpfs/hps/emc/global/noscrub/Boi.Vuong/lib/graphics/v2.0.0/intel/libgph_v2.0.0_8.a(bin2ch.o)
 .bss           0x00000000006f9600        0x0 /gpfs/hps/emc/global/noscrub/Boi.Vuong/lib/graphics/v2.0.0/intel/libgph_v2.0.0_8.a(cdc2asc.o)
 .bss           0x00000000006f9600      0x300 /gpfs/hps/emc/global/noscrub/Boi.Vuong/lib/graphics/v2.0.0/intel/libgph_v2.0.0_8.a(consol.o)
 .bss           0x00000000006f9900        0x0 /gpfs/hps/emc/global/noscrub/Boi.Vuong/lib/graphics/v2.0.0/intel/libgph_v2.0.0_8.a(xasc2asc.o)
 .bss           0x00000000006f9900      0x220 /gpfs/hps/emc/global/noscrub/Boi.Vuong/lib/graphics/v2.0.0/intel/libutil_v2.0.0.a(sbytesccs.o)
 .bss           0x00000000006f9b20        0x0 /gpfs/hps/emc/global/noscrub/Boi.Vuong/lib/graphics/v2.0.0/intel/libutil_v2.0.0.a(swap_bytes_in_place.o)
 .bss           0x00000000006f9b20       0x10 /gpfs/hps/nco/ops/nwprod/lib/w3emc/v2.2.0/intel/libw3emc_v2.2.0_8.a(mova2i.o)
 .bss           0x00000000006f9b30        0x0 /gpfs/hps/nco/ops/nwprod/lib/w3nco/v2.0.6/intel/libw3nco_v2.0.6_8.a(errexit.o)
 *fill*         0x00000000006f9b30       0x10 
 .bss           0x00000000006f9b40      0x220 /gpfs/hps/nco/ops/nwprod/lib/w3nco/v2.0.6/intel/libw3nco_v2.0.6_8.a(gbytes.o)
 .bss           0x00000000006f9d60       0x80 /gpfs/hps/nco/ops/nwprod/lib/w3nco/v2.0.6/intel/libw3nco_v2.0.6_8.a(w3as00.o)
 .bss           0x00000000006f9de0        0x0 /gpfs/hps/nco/ops/nwprod/lib/w3nco/v2.0.6/intel/libw3nco_v2.0.6_8.a(w3fi01.o)
 .bss           0x00000000006f9de0       0x18 /gpfs/hps/nco/ops/nwprod/lib/w3nco/v2.0.6/intel/libw3nco_v2.0.6_8.a(w3locdat.o)
 *fill*         0x00000000006f9df8        0x8 
 .bss           0x00000000006f9e00       0xc0 /gpfs/hps/nco/ops/nwprod/lib/w3nco/v2.0.6/intel/libw3nco_v2.0.6_8.a(w3tagb.o)
 .bss           0x00000000006f9ec0       0x18 /gpfs/hps/nco/ops/nwprod/lib/w3nco/v2.0.6/intel/libw3nco_v2.0.6_8.a(w3utcdat.o)
 .bss           0x00000000006f9ed8        0x0 /gpfs/hps/nco/ops/nwprod/lib/w3nco/v2.0.6/intel/libw3nco_v2.0.6_8.a(xmovex.o)
 .bss           0x00000000006f9ed8        0x0 /gpfs/hps/nco/ops/nwprod/lib/w3nco/v2.0.6/intel/libw3nco_v2.0.6_8.a(summary.o)
 .bss           0x00000000006f9ed8        0x0 /gpfs/hps/nco/ops/nwprod/lib/w3nco/v2.0.6/intel/libw3nco_v2.0.6_8.a(iw3jdn.o)
 .bss           0x00000000006f9ed8        0x0 /gpfs/hps/nco/ops/nwprod/lib/w3nco/v2.0.6/intel/libw3nco_v2.0.6_8.a(w3doxdat.o)
 .bss           0x00000000006f9ed8        0x0 /gpfs/hps/nco/ops/nwprod/lib/w3nco/v2.0.6/intel/libw3nco_v2.0.6_8.a(w3fs26.o)
 .bss           0x00000000006f9ed8        0x0 /opt/intel/composer_xe_2015.3.187/compiler/lib/intel64/libifport.a(getenv.o)
 *fill*         0x00000000006f9ed8        0x8 
 .bss           0x00000000006f9ee0      0x260 /opt/intel/composer_xe_2015.3.187/compiler/lib/intel64/libifcore.a(for_diags_intel.o)
                0x00000000006fa100                for__user_iomsg_buf
                0x00000000006fa108                for__user_iomsg_len
 .bss           0x00000000006fa140        0x0 /opt/intel/composer_xe_2015.3.187/compiler/lib/intel64/libifcore.a(for_endfile.o)
 .bss           0x00000000006fa140        0x0 /opt/intel/composer_xe_2015.3.187/compiler/lib/intel64/libifcore.a(for_exit.o)
 .bss           0x00000000006fa140        0x4 /opt/intel/composer_xe_2015.3.187/compiler/lib/intel64/libifcore.a(for_exit_handler.o)
                0x00000000006fa140                for__l_exit_termination
 .bss           0x00000000006fa144        0x0 /opt/intel/composer_xe_2015.3.187/compiler/lib/intel64/libifcore.a(for_getarg.o)
 *fill*         0x00000000006fa144        0x4 
 .bss           0x00000000006fa148       0x48 /opt/intel/composer_xe_2015.3.187/compiler/lib/intel64/libifcore.a(for_init.o)
                0x00000000006fa158                for__l_excpt_info
                0x00000000006fa164                for__l_fpe_mask
                0x00000000006fa168                for__l_undcnt
                0x00000000006fa16c                for__l_ovfcnt
                0x00000000006fa170                for__l_div0cnt
                0x00000000006fa174                for__l_invcnt
                0x00000000006fa178                for__l_inecnt
                0x00000000006fa17c                for__l_fmtrecl
                0x00000000006fa180                for__l_ufmtrecl
                0x00000000006fa184                for__l_blocksize
                0x00000000006fa188                for__l_buffercount
 .bss           0x00000000006fa190        0x0 /opt/intel/composer_xe_2015.3.187/compiler/lib/intel64/libifcore.a(for_io_util.o)
 *fill*         0x00000000006fa190       0x10 
 .bss           0x00000000006fa1a0     0x2760 /opt/intel/composer_xe_2015.3.187/compiler/lib/intel64/libifcore.a(for_lub_mgt.o)
                0x00000000006fa1c0                for__lub_table
 .bss           0x00000000006fc900      0x440 /opt/intel/composer_xe_2015.3.187/compiler/lib/intel64/libifcore.a(for_open.o)
                0x00000000006fcd20                for__l_exit_hand_decl
 .bss           0x00000000006fcd40     0x15e0 /opt/intel/composer_xe_2015.3.187/compiler/lib/intel64/libifcore.a(for_preconnected_units_init.o)
 .bss           0x00000000006fe320        0x0 /opt/intel/composer_xe_2015.3.187/compiler/lib/intel64/libifcore.a(for_put.o)
 .bss           0x00000000006fe320        0x0 /opt/intel/composer_xe_2015.3.187/compiler/lib/intel64/libifcore.a(for_rdir.o)
 .bss           0x00000000006fe320       0x18 /opt/intel/composer_xe_2015.3.187/compiler/lib/intel64/libifcore.a(for_reentrancy.o)
                0x00000000006fe330                for__reentrancy_mode
                0x00000000006fe334                for__reentrancy_initialized
 .bss           0x00000000006fe338        0x0 /opt/intel/composer_xe_2015.3.187/compiler/lib/intel64/libifcore.a(for_rewind.o)
 .bss           0x00000000006fe338        0x0 /opt/intel/composer_xe_2015.3.187/compiler/lib/intel64/libifcore.a(for_rint_fmt.o)
 .bss           0x00000000006fe338        0x4 /opt/intel/composer_xe_2015.3.187/compiler/lib/intel64/libifcore.a(for_secnds.o)
 .bss           0x00000000006fe33c        0x8 /opt/intel/composer_xe_2015.3.187/compiler/lib/intel64/libifcore.a(for_stop.o)
 .bss           0x00000000006fe344       0x10 /opt/intel/composer_xe_2015.3.187/compiler/lib/intel64/libifcore.a(for_vm.o)
 .bss           0x00000000006fe354        0x0 /opt/intel/composer_xe_2015.3.187/compiler/lib/intel64/libifcore.a(for_wdir.o)
 .bss           0x00000000006fe354        0x0 /opt/intel/composer_xe_2015.3.187/compiler/lib/intel64/libifcore.a(for_wint_fmt.o)
 .bss           0x00000000006fe354        0x0 /opt/intel/composer_xe_2015.3.187/compiler/lib/intel64/libifcore.a(for_wseq.o)
 .bss           0x00000000006fe354        0x0 /opt/intel/composer_xe_2015.3.187/compiler/lib/intel64/libifcore.a(for_wseq_fmt.o)
 .bss           0x00000000006fe354        0x0 /opt/intel/composer_xe_2015.3.187/compiler/lib/intel64/libifcore.a(for_wseq_lis.o)
 .bss           0x00000000006fe354        0x0 /opt/intel/composer_xe_2015.3.187/compiler/lib/intel64/libifcore.a(for_90_date.o)
 .bss           0x00000000006fe354        0x0 /opt/intel/composer_xe_2015.3.187/compiler/lib/intel64/libifcore.a(for_90_index.o)
 .bss           0x00000000006fe354        0x0 /opt/intel/composer_xe_2015.3.187/compiler/lib/intel64/libifcore.a(for_90_trim.o)
 .bss           0x00000000006fe354        0x0 /opt/intel/composer_xe_2015.3.187/compiler/lib/intel64/libifcore.a(for_f90str.o)
 .bss           0x00000000006fe354        0x4 /opt/intel/composer_xe_2015.3.187/compiler/lib/intel64/libifcore.a(tbk_traceback.o)
 .bss           0x00000000006fe358       0xd8 /opt/intel/composer_xe_2015.3.187/compiler/lib/intel64/libifcore.a(for_aio.o)
                0x00000000006fe400                for__aio_global_mutex
 .bss           0x00000000006fe430        0x0 /opt/intel/composer_xe_2015.3.187/compiler/lib/intel64/libifcore.a(for_open_proc.o)
 .bss           0x00000000006fe430        0x0 /opt/intel/composer_xe_2015.3.187/compiler/lib/intel64/libifcore.a(for_aio_wrap.o)
 .bss           0x00000000006fe430        0x0 /opt/intel/composer_xe_2015.3.187/compiler/lib/intel64/libifcore.a(cvt_text_to_int.o)
 .bss           0x00000000006fe430        0x0 /opt/intel/composer_xe_2015.3.187/compiler/lib/intel64/libifcore.a(cvt_vax_f.o)
 .bss           0x00000000006fe430        0x0 /opt/intel/composer_xe_2015.3.187/compiler/lib/intel64/libifcore.a(cvt_vax_d.o)
 .bss           0x00000000006fe430        0x0 /opt/intel/composer_xe_2015.3.187/compiler/lib/intel64/libifcore.a(cvt_vax_g.o)
 .bss           0x00000000006fe430        0x0 /opt/intel/composer_xe_2015.3.187/compiler/lib/intel64/libifcore.a(cvt_cray.o)
 .bss           0x00000000006fe430        0x0 /opt/intel/composer_xe_2015.3.187/compiler/lib/intel64/libifcore.a(cvt_ibm_short.o)
 .bss           0x00000000006fe430        0x0 /opt/intel/composer_xe_2015.3.187/compiler/lib/intel64/libifcore.a(cvt_ibm_long.o)
 .bss           0x00000000006fe430        0x0 /opt/intel/composer_xe_2015.3.187/compiler/lib/intel64/libifcore.a(cvt_ieee_double.o)
 .bss           0x00000000006fe430        0x0 /opt/intel/composer_xe_2015.3.187/compiler/lib/intel64/libifcore.a(cvt_ieee_single.o)
 .bss           0x00000000006fe430        0x0 /opt/intel/composer_xe_2015.3.187/compiler/lib/intel64/libifcore.a(for_close.o)
 .bss           0x00000000006fe430        0x0 /opt/intel/composer_xe_2015.3.187/compiler/lib/intel64/libifcore.a(for_close_proc.o)
 .bss           0x00000000006fe430        0x0 /opt/intel/composer_xe_2015.3.187/compiler/lib/intel64/libifcore.a(for_default_io_sizes_env_init.o)
 .bss           0x00000000006fe430        0x0 /opt/intel/composer_xe_2015.3.187/compiler/lib/intel64/libifcore.a(for_desc_item.o)
 .bss           0x00000000006fe430        0x0 /opt/intel/composer_xe_2015.3.187/compiler/lib/intel64/libifcore.a(for_fmt_comp.o)
 .bss           0x00000000006fe430        0x0 /opt/intel/composer_xe_2015.3.187/compiler/lib/intel64/libifcore.a(for_fmt_val.o)
 .bss           0x00000000006fe430        0x0 /opt/intel/composer_xe_2015.3.187/compiler/lib/intel64/libifcore.a(for_get.o)
 .bss           0x00000000006fe430        0x0 /opt/intel/composer_xe_2015.3.187/compiler/lib/intel64/libifcore.a(for_index.o)
 .bss           0x00000000006fe430        0x0 /opt/intel/composer_xe_2015.3.187/compiler/lib/intel64/libifcore.a(for_intrp_fmt.o)
 .bss           0x00000000006fe430        0x0 /opt/intel/composer_xe_2015.3.187/compiler/lib/intel64/libifcore.a(for_ldir_wfs.o)
 *fill*         0x00000000006fe430       0x10 
 .bss           0x00000000006fe440     0x20a0 /opt/intel/composer_xe_2015.3.187/compiler/lib/intel64/libifcore.a(for_need_lf.o)
                0x00000000006fe440                for__file_info_hash_table
 .bss           0x00000000007004e0        0x0 /opt/intel/composer_xe_2015.3.187/compiler/lib/intel64/libifcore.a(cvt__globals.o)
 .bss           0x00000000007004e0        0x0 /opt/intel/composer_xe_2015.3.187/compiler/lib/intel64/libifcore.a(cvt_int_to_text.o)
 .bss           0x00000000007004e0        0x0 /opt/intel/composer_xe_2015.3.187/compiler/lib/intel64/libifcore.a(cvt_data_to_text.o)
 .bss           0x00000000007004e0        0x0 /opt/intel/composer_xe_2015.3.187/compiler/lib/intel64/libifcore.a(cvt_log_to_text.o)
 .bss           0x00000000007004e0        0x0 /opt/intel/composer_xe_2015.3.187/compiler/lib/intel64/libifcore.a(cvt_text_to_data.o)
 .bss           0x00000000007004e0        0x0 /opt/intel/composer_xe_2015.3.187/compiler/lib/intel64/libifcore.a(cvt_text_to_log.o)
 .bss           0x00000000007004e0        0x0 /opt/intel/composer_xe_2015.3.187/compiler/lib/intel64/libifcore.a(cvt_cvtas_t.o)
 .bss           0x00000000007004e0        0x0 /opt/intel/composer_xe_2015.3.187/compiler/lib/intel64/libifcore.a(cvt_cvtas_s.o)
 .bss           0x00000000007004e0        0x0 /opt/intel/composer_xe_2015.3.187/compiler/lib/intel64/libifcore.a(cvt_cvtas_x.o)
 .bss           0x00000000007004e0        0x0 /opt/intel/composer_xe_2015.3.187/compiler/lib/intel64/libifcore.a(cvtas_a_to_s.o)
 .bss           0x00000000007004e0        0x0 /opt/intel/composer_xe_2015.3.187/compiler/lib/intel64/libifcore.a(cvtas_a_to_t.o)
 .bss           0x00000000007004e0        0x0 /opt/intel/composer_xe_2015.3.187/compiler/lib/intel64/libifcore.a(cvtas_s_to_a.o)
 .bss           0x00000000007004e0        0x0 /opt/intel/composer_xe_2015.3.187/compiler/lib/intel64/libifcore.a(cvtas_t_to_a.o)
 .bss           0x00000000007004e0        0x0 /opt/intel/composer_xe_2015.3.187/compiler/lib/intel64/libifcore.a(cvtas_nan_s.o)
 .bss           0x00000000007004e0        0x0 /opt/intel/composer_xe_2015.3.187/compiler/lib/intel64/libifcore.a(cvtas_nan_t.o)
 .bss           0x00000000007004e0        0x0 /opt/intel/composer_xe_2015.3.187/compiler/lib/intel64/libifcore.a(cvtas_a_to_x.o)
 .bss           0x00000000007004e0        0x0 /opt/intel/composer_xe_2015.3.187/compiler/lib/intel64/libifcore.a(cvtas_x_to_a.o)
 .bss           0x00000000007004e0        0x0 /opt/intel/composer_xe_2015.3.187/compiler/lib/intel64/libifcore.a(cvtas_nan_x.o)
 .bss           0x00000000007004e0        0x0 /opt/intel/composer_xe_2015.3.187/compiler/lib/intel64/libifcore.a(cvtas_globals.o)
 .bss           0x00000000007004e0        0x0 /opt/intel/composer_xe_2015.3.187/compiler/lib/intel64/libifcore.a(cvtas_pow_ten_53.o)
 .bss           0x00000000007004e0        0x0 /opt/intel/composer_xe_2015.3.187/compiler/lib/intel64/libifcore.a(cvtas_pow_ten_64.o)
 .bss           0x00000000007004e0        0x0 /opt/intel/composer_xe_2015.3.187/compiler/lib/intel64/libifcore.a(cvtas_pow_ten_128.o)
 .bss           0x00000000007004e0        0x0 /opt/intel/composer_xe_2015.3.187/compiler/lib/intel64/libimf.a(fetestexcept.o)
 .bss           0x00000000007004e0        0x0 /opt/intel/composer_xe_2015.3.187/compiler/lib/intel64/libimf.a(log_stub.o)
 .bss           0x00000000007004e0        0x0 /opt/intel/composer_xe_2015.3.187/compiler/lib/intel64/libimf.a(log_ct.o)
 .bss           0x00000000007004e0        0x0 /opt/intel/composer_xe_2015.3.187/compiler/lib/intel64/libimf.a(log_gen.o)
 .bss           0x00000000007004e0        0x8 /opt/intel/composer_xe_2015.3.187/compiler/lib/intel64/libimf.a(libm_error.o)
 .bss           0x00000000007004e8        0x0 /opt/intel/composer_xe_2015.3.187/compiler/lib/intel64/libimf.a(matherrf.o)
 .bss           0x00000000007004e8        0x0 /opt/intel/composer_xe_2015.3.187/compiler/lib/intel64/libimf.a(matherrl.o)
 .bss           0x00000000007004e8        0x0 /opt/intel/composer_xe_2015.3.187/compiler/lib/intel64/libimf.a(matherr.o)
 .bss           0x00000000007004e8        0x0 /opt/intel/composer_xe_2015.3.187/compiler/lib/intel64/libirc.a(ints2q.o)
 .bss           0x00000000007004e8        0x0 /opt/intel/composer_xe_2015.3.187/compiler/lib/intel64/libirc.a(qcomp.o)
 .bss           0x00000000007004e8        0x0 /opt/intel/composer_xe_2015.3.187/compiler/lib/intel64/libirc.a(fp2q.o)
 .bss           0x00000000007004e8        0x0 /opt/intel/composer_xe_2015.3.187/compiler/lib/intel64/libirc.a(q2fp.o)
 .bss           0x00000000007004e8        0x0 /opt/intel/composer_xe_2015.3.187/compiler/lib/intel64/libirc.a(tbk_display.o)
 *fill*         0x00000000007004e8       0x18 
 .bss           0x0000000000700500      0x180 /opt/intel/composer_xe_2015.3.187/compiler/lib/intel64/libirc.a(tbk_backtrace.o)
                0x00000000007005a0                tbk__jmp_env
 .bss           0x0000000000700680       0x10 /opt/intel/composer_xe_2015.3.187/compiler/lib/intel64/libirc.a(cpu_feature_disp.o)
                0x0000000000700680                __intel_cpu_feature_indicator
                0x0000000000700688                __intel_cpu_feature_indicator_x
 .bss           0x0000000000700690        0x0 /opt/intel/composer_xe_2015.3.187/compiler/lib/intel64/libirc.a(ia32_memcmp.o)
 .bss           0x0000000000700690        0x0 /opt/intel/composer_xe_2015.3.187/compiler/lib/intel64/libirc.a(fastmemcpy.o)
 .bss           0x0000000000700690        0x0 /opt/intel/composer_xe_2015.3.187/compiler/lib/intel64/libirc.a(fastmemmove.o)
 .bss           0x0000000000700690        0x0 /opt/intel/composer_xe_2015.3.187/compiler/lib/intel64/libirc.a(fastmemset.o)
 .bss           0x0000000000700690        0x0 /opt/intel/composer_xe_2015.3.187/compiler/lib/intel64/libirc.a(new_proc_init.o)
 .bss           0x0000000000700690        0x0 /opt/intel/composer_xe_2015.3.187/compiler/lib/intel64/libirc.a(ia32_addsubq.o)
 .bss           0x0000000000700690        0x0 /opt/intel/composer_xe_2015.3.187/compiler/lib/intel64/libirc.a(ia32_divq.o)
 .bss           0x0000000000700690        0x0 /opt/intel/composer_xe_2015.3.187/compiler/lib/intel64/libirc.a(sse2_strcpy.o)
 .bss           0x0000000000700690        0x0 /opt/intel/composer_xe_2015.3.187/compiler/lib/intel64/libirc.a(sse2_strncpy.o)
 .bss           0x0000000000700690        0x0 /opt/intel/composer_xe_2015.3.187/compiler/lib/intel64/libirc.a(sse2_strlen.o)
 .bss           0x0000000000700690        0x0 /opt/intel/composer_xe_2015.3.187/compiler/lib/intel64/libirc.a(sse2_strchr.o)
 .bss           0x0000000000700690        0x0 /opt/intel/composer_xe_2015.3.187/compiler/lib/intel64/libirc.a(sse2_strncmp.o)
 .bss           0x0000000000700690        0x0 /opt/intel/composer_xe_2015.3.187/compiler/lib/intel64/libirc.a(sse2_strcat.o)
 .bss           0x0000000000700690        0x0 /opt/intel/composer_xe_2015.3.187/compiler/lib/intel64/libirc.a(sse2_strncat.o)
 .bss           0x0000000000700690        0x0 /opt/intel/composer_xe_2015.3.187/compiler/lib/intel64/libirc.a(fast_memcpy_pp.o)
 .bss           0x0000000000700690        0x0 /opt/intel/composer_xe_2015.3.187/compiler/lib/intel64/libirc.a(fast_memset_pp.o)
 .bss           0x0000000000700690        0x0 /opt/intel/composer_xe_2015.3.187/compiler/lib/intel64/libirc.a(intel_ssse3_memcpy.o)
 .bss           0x0000000000700690        0x0 /opt/intel/composer_xe_2015.3.187/compiler/lib/intel64/libirc.a(intel_ssse3_rep_memcpy.o)
 .bss           0x0000000000700690        0x0 /opt/intel/composer_xe_2015.3.187/compiler/lib/intel64/libirc.a(intel_ssse3_memmove.o)
 .bss           0x0000000000700690        0x0 /opt/intel/composer_xe_2015.3.187/compiler/lib/intel64/libirc.a(intel_ssse3_rep_memmove.o)
 *fill*         0x0000000000700690       0x10 
 .bss           0x00000000007006a0      0x420 /opt/intel/composer_xe_2015.3.187/compiler/lib/intel64/libirc.a(irc_msg_support.o)
 .bss           0x0000000000700ac0       0x60 /opt/intel/composer_xe_2015.3.187/compiler/lib/intel64/libirc.a(fast_mem_ops.o)
                0x0000000000700b04                __libirc_mem_ops_method
                0x0000000000700b08                __libirc_largest_cachelinesize
 .bss           0x0000000000700b20        0x0 /opt/intel/composer_xe_2015.3.187/compiler/lib/intel64/libirc.a(proc_init_utils.o)
 .bss           0x0000000000700b20        0x0 /usr/lib64/libc_nonshared.a(elf-init.oS)
 .bss           0x0000000000700b20        0x0 /opt/gcc/4.9.2/snos/lib/gcc/x86_64-suse-linux/4.9.2/crtend.o
 .bss           0x0000000000700b20        0x0 /usr/lib/../lib64/crtn.o
 *(COMMON)
 COMMON         0x0000000000700b20   0x1aa248 fxcompoz.o
                0x0000000000700b20                spac4img_
                0x000000000088c360                proddesc_
 *fill*         0x00000000008aad68       0x18 
 COMMON         0x00000000008aad80      0x320 open99.o
                0x00000000008aad80                ftxx
 COMMON         0x00000000008ab0a0    0x197c0 /gpfs/hps/nco/ops/nwprod/lib/w3nco/v2.0.6/intel/libw3nco_v2.0.6_8.a(summary.o)
                0x00000000008ab0a0                MPI_Group_compare_data
                0x00000000008ab3e0                MPI_Allgatherv_data
                0x00000000008ab720                MPI_Sendrecv_data
                0x00000000008aba60                MPI_Reduce_scatter_data
                0x00000000008abda0                MPI_Testsome_data
                0x00000000008ac0e0                MPI_Type_vector_data
                0x00000000008ac420                MPI_Group_difference_data
                0x00000000008ac760                profile
                0x00000000008ac780                MPI_Cancel_data
                0x00000000008acac0                MPI_Type_commit_data
                0x00000000008ace00                MPI_Waitall_data
                0x00000000008ad140                MPI_Group_range_incl_data
                0x00000000008ad480                twall
                0x00000000008ad488                cpu_comm
                0x00000000008ad4a0                MPI_Rsend_data
                0x00000000008ad7e0                MPI_Reduce_data
                0x00000000008adb20                MPI_Type_hindexed_data
                0x00000000008ade60                MPI_Attr_delete_data
                0x00000000008ae1a0                MPI_Graph_map_data
                0x00000000008ae4e0                MPI_Waitsome_data
                0x00000000008ae820                MPI_Scan_data
                0x00000000008aeb60                MPI_Probe_data
                0x00000000008aeea0                MPI_Startall_data
                0x00000000008af1e0                MPI_Start_data
                0x00000000008af520                MPI_Group_size_data
                0x00000000008af860                MPI_Type_ub_data
                0x00000000008afba0                MPI_Error_class_data
                0x00000000008afee0                MPI_Send_data
                0x00000000008b0220                MPI_Group_union_data
                0x00000000008b0560                MPI_Comm_group_data
                0x00000000008b08a0                MPI_Test_data
                0x00000000008b0be0                MPI_Wtime_data
                0x00000000008b0f20                MPI_Errhandler_get_data
                0x00000000008b1260                MPI_Irsend_data
                0x00000000008b15a0                MPI_Bcast_data
                0x00000000008b18e0                MPI_Isend_data
                0x00000000008b1c20                MPI_Ssend_init_data
                0x00000000008b1f60                MPI_Abort_data
                0x00000000008b22a0                MPI_Pack_data
                0x00000000008b25e0                MPI_Request_free_data
                0x00000000008b2920                MPI_Op_create_data
                0x00000000008b2c60                MPI_Errhandler_free_data
                0x00000000008b2fa0                msglen
                0x00000000008b2fc0                MPI_Cart_rank_data
                0x00000000008b3300                procid_0
                0x00000000008b3320                MPI_Cart_map_data
                0x00000000008b3660                MPI_Cart_shift_data
                0x00000000008b39a0                MPI_Alltoall_data
                0x00000000008b3ce0                MPI_Address_data
                0x00000000008b4020                MPI_Group_intersection_data
                0x00000000008b4360                MPI_Type_lb_data
                0x00000000008b46a0                MPI_Errhandler_create_data
                0x00000000008b49e0                MPI_Recv_init_data
                0x00000000008b4d20                MPI_Graph_create_data
                0x00000000008b5060                MPI_Keyval_free_data
                0x00000000008b53a0                MPI_Type_indexed_data
                0x00000000008b56e0                MPI_Type_hvector_data
                0x00000000008b5a20                MPI_Comm_remote_group_data
                0x00000000008b5d60                MPI_Type_struct_data
                0x00000000008b60a0                MPI_Group_translate_ranks_data
                0x00000000008b63e0                MPI_Gatherv_data
                0x00000000008b6720                MPI_Group_range_excl_data
                0x00000000008b6a60                final_wall
                0x00000000008b6a80                MPI_Cart_coords_data
                0x00000000008b6dc0                tbytes
                0x00000000008b6de0                MPI_Get_count_data
                0x00000000008b7120                MPI_Comm_remote_size_data
                0x00000000008b7460                MPI_Type_size_data
                0x00000000008b77a0                MPI_Ibsend_data
                0x00000000008b7ae0                MPI_Group_excl_data
                0x00000000008b7e20                MPI_Iprobe_data
                0x00000000008b8160                MPI_Dims_create_data
                0x00000000008b84a0                MPI_Recv_data
                0x00000000008b87e0                f_bytes
                0x00000000008b87e8                wall_comm
                0x00000000008b8800                MPI_Op_free_data
                0x00000000008b8b40                MPI_Comm_compare_data
                0x00000000008b8e80                tcpu
                0x00000000008b8ea0                MPI_Error_string_data
                0x00000000008b91e0                MPI_Comm_size_data
                0x00000000008b9520                MPI_Wtick_data
                0x00000000008b9860                MPI_Comm_create_data
                0x00000000008b9ba0                MPI_Waitany_data
                0x00000000008b9ee0                MPI_Topo_test_data
                0x00000000008ba220                MPI_Graphdims_get_data
                0x00000000008ba560                MPI_Unpack_data
                0x00000000008ba8a0                MPI_Send_init_data
                0x00000000008babe0                MPI_Errhandler_set_data
                0x00000000008baf20                MPI_Bsend_init_data
                0x00000000008bb260                MPI_Gather_data
                0x00000000008bb5a0                MPI_Sendrecv_replace_data
                0x00000000008bb8e0                trace_flag
                0x00000000008bb900                MPI_Irecv_data
                0x00000000008bbc40                MPI_Cart_sub_data
                0x00000000008bbf80                MPI_Group_incl_data
                0x00000000008bc2c0                MPI_Cart_get_data
                0x00000000008bc600                MPI_Graph_neighbors_count_data
                0x00000000008bc940                MPI_Comm_free_data
                0x00000000008bcc80                MPI_Keyval_create_data
                0x00000000008bcfc0                MPI_Buffer_detach_data
                0x00000000008bd300                MPI_Intercomm_merge_data
                0x00000000008bd640                MPI_Issend_data
                0x00000000008bd980                MPI_Attr_put_data
                0x00000000008bdcc0                MPI_Graph_get_data
                0x00000000008be000                MPI_Allreduce_data
                0x00000000008be340                MPI_Type_extent_data
                0x00000000008be680                MPI_Initialized_data
                0x00000000008be9c0                MPI_Comm_rank_data
                0x00000000008bed00                MPI_Bsend_data
                0x00000000008bf040                MPI_Type_contiguous_data
                0x00000000008bf380                MPI_Attr_get_data
                0x00000000008bf6c0                MPI_Comm_test_inter_data
                0x00000000008bfa00                MPI_Group_rank_data
                0x00000000008bfd40                MPI_Comm_dup_data
                0x00000000008c0080                MPI_Allgather_data
                0x00000000008c03c0                start_wall
                0x00000000008c03e0                MPI_Cartdim_get_data
                0x00000000008c0720                MPI_Intercomm_create_data
                0x00000000008c0a60                MPI_Rsend_init_data
                0x00000000008c0da0                MPI_Buffer_attach_data
                0x00000000008c10e0                MPI_Group_free_data
                0x00000000008c1420                MPI_Cart_create_data
                0x00000000008c1760                mypid
                0x00000000008c1768                tot_wall
                0x00000000008c1780                MPI_Scatter_data
                0x00000000008c1ac0                MPI_Testany_data
                0x00000000008c1e00                MPI_Scatterv_data
                0x00000000008c2140                MPI_Testall_data
                0x00000000008c2480                MPI_Test_cancelled_data
                0x00000000008c27c0                MPI_Barrier_data
                0x00000000008c2b00                MPI_Get_elements_data
                0x00000000008c2e40                MPI_Comm_split_data
                0x00000000008c3180                MPI_Pack_size_data
                0x00000000008c34c0                MPI_Ssend_data
                0x00000000008c3800                MPI_Wait_data
                0x00000000008c3b40                MPI_Alltoallv_data
                0x00000000008c3e80                MPI_Graph_neighbors_data
                0x00000000008c41c0                MPI_Type_free_data
                0x00000000008c4500                numtask
                0x00000000008c4520                MPI_Get_processor_name_data
 COMMON         0x00000000008c4860        0x8 /opt/intel/composer_xe_2015.3.187/compiler/lib/intel64/libifcore.a(for_diags_intel.o)
                0x00000000008c4860                message_catalog
 COMMON         0x00000000008c4868       0x10 /opt/intel/composer_xe_2015.3.187/compiler/lib/intel64/libifcore.a(for_init.o)
                0x00000000008c4868                for__l_argc
                0x00000000008c4870                for__a_argv
 *fill*         0x00000000008c4878        0x8 
 COMMON         0x00000000008c4880      0x480 /opt/intel/composer_xe_2015.3.187/compiler/lib/intel64/libifcore.a(for_aio.o)
                0x00000000008c4880                for__pthread_mutex_unlock_ptr
                0x00000000008c4888                for__pthread_mutex_lock_ptr
                0x00000000008c4890                thread_count_mutex
                0x00000000008c48b8                for__pthread_mutex_init_ptr
                0x00000000008c48c0                threads_in_flight_mutex
                0x00000000008c4900                for__aio_lub_table
                0x00000000008c4d00                . = ALIGN ((. != 0x0)?0x8:0x1)

.lbss
 *(.dynlbss)
 *(.lbss .lbss.* .gnu.linkonce.lb.*)
 *(LARGE_COMMON)
                0x00000000008c4d00                . = ALIGN (0x8)

.lrodata
 *(.lrodata .lrodata.* .gnu.linkonce.lr.*)

.ldata          0x0000000000cc4d00        0x0
 *(.ldata .ldata.* .gnu.linkonce.l.*)
                0x0000000000cc4d00                . = ALIGN ((. != 0x0)?0x8:0x1)
                0x0000000000cc4d00                . = ALIGN (0x8)
                0x0000000000cc4d00                _end = .
                0x0000000000cc4d00                PROVIDE (end, .)
                0x0000000000cc4d00                . = DATA_SEGMENT_END (.)

.stab
 *(.stab)

.stabstr
 *(.stabstr)

.stab.excl
 *(.stab.excl)

.stab.exclstr
 *(.stab.exclstr)

.stab.index
 *(.stab.index)

.stab.indexstr
 *(.stab.indexstr)

.comment        0x0000000000000000       0x73
 *(.comment)
 .comment       0x0000000000000000       0x39 /usr/lib/../lib64/crt1.o
                                         0x3a (size before relaxing)
 .comment       0x0000000000000000       0x3a /usr/lib/../lib64/crti.o
 .comment       0x0000000000000039       0x26 /opt/gcc/4.9.2/snos/lib/gcc/x86_64-suse-linux/4.9.2/crtbegin.o
                                         0x27 (size before relaxing)
 .comment       0x000000000000005f       0x14 /opt/intel/composer_xe_2015.3.187/compiler/lib/intel64/for_main.o
 .comment       0x0000000000000000       0x14 fxcompoz.o
 .comment       0x0000000000000000       0x14 /gpfs/hps/nco/ops/nwprod/lib/w3nco/v2.0.6/intel/libw3nco_v2.0.6_8.a(w3tagb.o)
 .comment       0x0000000000000000       0x14 /gpfs/hps/nco/ops/nwprod/lib/w3nco/v2.0.6/intel/libw3nco_v2.0.6_8.a(summary.o)
 .comment       0x0000000000000000       0x14 /opt/intel/composer_xe_2015.3.187/compiler/lib/intel64/libimf.a(log_stub.o)
 .comment       0x0000000000000000       0x14 /opt/intel/composer_xe_2015.3.187/compiler/lib/intel64/libirc.a(fastmemcpy.o)
 .comment       0x0000000000000000       0x14 /opt/intel/composer_xe_2015.3.187/compiler/lib/intel64/libirc.a(fastmemmove.o)
 .comment       0x0000000000000000       0x14 /opt/intel/composer_xe_2015.3.187/compiler/lib/intel64/libirc.a(fastmemset.o)
 .comment       0x0000000000000000       0x14 /opt/intel/composer_xe_2015.3.187/compiler/lib/intel64/libirc.a(ia32_addsubq.o)
 .comment       0x0000000000000000       0x14 /opt/intel/composer_xe_2015.3.187/compiler/lib/intel64/libirc.a(ia32_divq.o)
 .comment       0x0000000000000000       0x27 /opt/gcc/4.9.2/snos/lib/gcc/x86_64-suse-linux/4.9.2/crtend.o
 .comment       0x0000000000000000       0x3a /usr/lib/../lib64/crtn.o

.debug
 *(.debug)

.line
 *(.line)

.debug_srcinfo
 *(.debug_srcinfo)

.debug_sfnames
 *(.debug_sfnames)

.debug_aranges  0x0000000000000000       0x60
 *(.debug_aranges)
 .debug_aranges
                0x0000000000000000       0x30 /usr/lib/../lib64/crt1.o
 .debug_aranges
                0x0000000000000030       0x30 /usr/lib64/libc_nonshared.a(elf-init.oS)

.debug_pubnames
                0x0000000000000000       0x5f
 *(.debug_pubnames)
 .debug_pubnames
                0x0000000000000000       0x25 /usr/lib/../lib64/crt1.o
 .debug_pubnames
                0x0000000000000025       0x3a /usr/lib64/libc_nonshared.a(elf-init.oS)

.debug_info     0x0000000000000000     0x9485
 *(.debug_info .gnu.linkonce.wi.*)
 .debug_info    0x0000000000000000      0x102 /usr/lib/../lib64/crt1.o
 .debug_info    0x0000000000000102      0x9c0 fxcompoz.o
 .debug_info    0x0000000000000ac2      0x34e close99.o
 .debug_info    0x0000000000000e10     0x332c fxcompozlib.o
 .debug_info    0x000000000000413c      0x3b1 open99.o
 .debug_info    0x00000000000044ed      0x3a3 rd1byt99.o
 .debug_info    0x0000000000004890      0x38d reposi99.o
 .debug_info    0x0000000000004c1d      0x359 rewind99.o
 .debug_info    0x0000000000004f76      0x368 wheren99.o
 .debug_info    0x00000000000052de      0x285 /gpfs/hps/emc/global/noscrub/Boi.Vuong/lib/graphics/v2.0.0/intel/libgph_v2.0.0_8.a(bin2ch.o)
 .debug_info    0x0000000000005563      0x156 /gpfs/hps/emc/global/noscrub/Boi.Vuong/lib/graphics/v2.0.0/intel/libgph_v2.0.0_8.a(cdc2asc.o)
 .debug_info    0x00000000000056b9      0x982 /gpfs/hps/emc/global/noscrub/Boi.Vuong/lib/graphics/v2.0.0/intel/libgph_v2.0.0_8.a(consol.o)
 .debug_info    0x000000000000603b      0x15d /gpfs/hps/emc/global/noscrub/Boi.Vuong/lib/graphics/v2.0.0/intel/libgph_v2.0.0_8.a(xasc2asc.o)
 .debug_info    0x0000000000006198      0x1b1 /gpfs/hps/emc/global/noscrub/Boi.Vuong/lib/graphics/v2.0.0/intel/libutil_v2.0.0.a(sbytesccs.o)
 .debug_info    0x0000000000006349      0x433 /gpfs/hps/emc/global/noscrub/Boi.Vuong/lib/graphics/v2.0.0/intel/libutil_v2.0.0.a(swap_bytes_in_place.o)
 .debug_info    0x000000000000677c       0xa9 /gpfs/hps/nco/ops/nwprod/lib/w3emc/v2.2.0/intel/libw3emc_v2.2.0_8.a(mova2i.o)
 .debug_info    0x0000000000006825       0x73 /gpfs/hps/nco/ops/nwprod/lib/w3nco/v2.0.6/intel/libw3nco_v2.0.6_8.a(errexit.o)
 .debug_info    0x0000000000006898      0x1a1 /gpfs/hps/nco/ops/nwprod/lib/w3nco/v2.0.6/intel/libw3nco_v2.0.6_8.a(gbytes.o)
 .debug_info    0x0000000000006a39      0x3e6 /gpfs/hps/nco/ops/nwprod/lib/w3nco/v2.0.6/intel/libw3nco_v2.0.6_8.a(w3as00.o)
 .debug_info    0x0000000000006e1f       0x60 /gpfs/hps/nco/ops/nwprod/lib/w3nco/v2.0.6/intel/libw3nco_v2.0.6_8.a(w3fi01.o)
 .debug_info    0x0000000000006e7f       0xbc /gpfs/hps/nco/ops/nwprod/lib/w3nco/v2.0.6/intel/libw3nco_v2.0.6_8.a(w3locdat.o)
 .debug_info    0x0000000000006f3b      0x458 /gpfs/hps/nco/ops/nwprod/lib/w3nco/v2.0.6/intel/libw3nco_v2.0.6_8.a(w3tagb.o)
 .debug_info    0x0000000000007393       0xec /gpfs/hps/nco/ops/nwprod/lib/w3nco/v2.0.6/intel/libw3nco_v2.0.6_8.a(w3utcdat.o)
 .debug_info    0x000000000000747f       0xbf /gpfs/hps/nco/ops/nwprod/lib/w3nco/v2.0.6/intel/libw3nco_v2.0.6_8.a(xmovex.o)
 .debug_info    0x000000000000753e     0x1bff /gpfs/hps/nco/ops/nwprod/lib/w3nco/v2.0.6/intel/libw3nco_v2.0.6_8.a(summary.o)
 .debug_info    0x000000000000913d       0x8c /gpfs/hps/nco/ops/nwprod/lib/w3nco/v2.0.6/intel/libw3nco_v2.0.6_8.a(iw3jdn.o)
 .debug_info    0x00000000000091c9       0xbf /gpfs/hps/nco/ops/nwprod/lib/w3nco/v2.0.6/intel/libw3nco_v2.0.6_8.a(w3doxdat.o)
 .debug_info    0x0000000000009288       0xcd /gpfs/hps/nco/ops/nwprod/lib/w3nco/v2.0.6/intel/libw3nco_v2.0.6_8.a(w3fs26.o)
 .debug_info    0x0000000000009355      0x130 /usr/lib64/libc_nonshared.a(elf-init.oS)

.debug_abbrev   0x0000000000000000     0x1736
 *(.debug_abbrev)
 .debug_abbrev  0x0000000000000000       0x5f /usr/lib/../lib64/crt1.o
 .debug_abbrev  0x000000000000005f       0xaa fxcompoz.o
 .debug_abbrev  0x0000000000000109       0xe6 close99.o
 .debug_abbrev  0x00000000000001ef      0x239 fxcompozlib.o
 .debug_abbrev  0x0000000000000428       0xfe open99.o
 .debug_abbrev  0x0000000000000526       0xf3 rd1byt99.o
 .debug_abbrev  0x0000000000000619       0xe6 reposi99.o
 .debug_abbrev  0x00000000000006ff       0xe6 rewind99.o
 .debug_abbrev  0x00000000000007e5       0xe6 wheren99.o
 .debug_abbrev  0x00000000000008cb       0xcf /gpfs/hps/emc/global/noscrub/Boi.Vuong/lib/graphics/v2.0.0/intel/libgph_v2.0.0_8.a(bin2ch.o)
 .debug_abbrev  0x000000000000099a       0x97 /gpfs/hps/emc/global/noscrub/Boi.Vuong/lib/graphics/v2.0.0/intel/libgph_v2.0.0_8.a(cdc2asc.o)
 .debug_abbrev  0x0000000000000a31      0x12b /gpfs/hps/emc/global/noscrub/Boi.Vuong/lib/graphics/v2.0.0/intel/libgph_v2.0.0_8.a(consol.o)
 .debug_abbrev  0x0000000000000b5c       0x92 /gpfs/hps/emc/global/noscrub/Boi.Vuong/lib/graphics/v2.0.0/intel/libgph_v2.0.0_8.a(xasc2asc.o)
 .debug_abbrev  0x0000000000000bee       0x95 /gpfs/hps/emc/global/noscrub/Boi.Vuong/lib/graphics/v2.0.0/intel/libutil_v2.0.0.a(sbytesccs.o)
 .debug_abbrev  0x0000000000000c83      0x102 /gpfs/hps/emc/global/noscrub/Boi.Vuong/lib/graphics/v2.0.0/intel/libutil_v2.0.0.a(swap_bytes_in_place.o)
 .debug_abbrev  0x0000000000000d85       0x81 /gpfs/hps/nco/ops/nwprod/lib/w3emc/v2.2.0/intel/libw3emc_v2.2.0_8.a(mova2i.o)
 .debug_abbrev  0x0000000000000e06       0x51 /gpfs/hps/nco/ops/nwprod/lib/w3nco/v2.0.6/intel/libw3nco_v2.0.6_8.a(errexit.o)
 .debug_abbrev  0x0000000000000e57       0x95 /gpfs/hps/nco/ops/nwprod/lib/w3nco/v2.0.6/intel/libw3nco_v2.0.6_8.a(gbytes.o)
 .debug_abbrev  0x0000000000000eec      0x122 /gpfs/hps/nco/ops/nwprod/lib/w3nco/v2.0.6/intel/libw3nco_v2.0.6_8.a(w3as00.o)
 .debug_abbrev  0x000000000000100e       0x44 /gpfs/hps/nco/ops/nwprod/lib/w3nco/v2.0.6/intel/libw3nco_v2.0.6_8.a(w3fi01.o)
 .debug_abbrev  0x0000000000001052       0x6e /gpfs/hps/nco/ops/nwprod/lib/w3nco/v2.0.6/intel/libw3nco_v2.0.6_8.a(w3locdat.o)
 .debug_abbrev  0x00000000000010c0       0xe2 /gpfs/hps/nco/ops/nwprod/lib/w3nco/v2.0.6/intel/libw3nco_v2.0.6_8.a(w3tagb.o)
 .debug_abbrev  0x00000000000011a2       0x70 /gpfs/hps/nco/ops/nwprod/lib/w3nco/v2.0.6/intel/libw3nco_v2.0.6_8.a(w3utcdat.o)
 .debug_abbrev  0x0000000000001212       0x8a /gpfs/hps/nco/ops/nwprod/lib/w3nco/v2.0.6/intel/libw3nco_v2.0.6_8.a(xmovex.o)
 .debug_abbrev  0x000000000000129c      0x2ac /gpfs/hps/nco/ops/nwprod/lib/w3nco/v2.0.6/intel/libw3nco_v2.0.6_8.a(summary.o)
 .debug_abbrev  0x0000000000001548       0x53 /gpfs/hps/nco/ops/nwprod/lib/w3nco/v2.0.6/intel/libw3nco_v2.0.6_8.a(iw3jdn.o)
 .debug_abbrev  0x000000000000159b       0x67 /gpfs/hps/nco/ops/nwprod/lib/w3nco/v2.0.6/intel/libw3nco_v2.0.6_8.a(w3doxdat.o)
 .debug_abbrev  0x0000000000001602       0x60 /gpfs/hps/nco/ops/nwprod/lib/w3nco/v2.0.6/intel/libw3nco_v2.0.6_8.a(w3fs26.o)
 .debug_abbrev  0x0000000000001662       0xd4 /usr/lib64/libc_nonshared.a(elf-init.oS)

.debug_line     0x0000000000000000     0x5b9f
 *(.debug_line)
 .debug_line    0x0000000000000000       0x88 /usr/lib/../lib64/crt1.o
 .debug_line    0x0000000000000088      0x729 fxcompoz.o
 .debug_line    0x00000000000007b1       0xf8 close99.o
 .debug_line    0x00000000000008a9     0x220c fxcompozlib.o
 .debug_line    0x0000000000002ab5      0x12f open99.o
 .debug_line    0x0000000000002be4      0x11e rd1byt99.o
 .debug_line    0x0000000000002d02      0x111 reposi99.o
 .debug_line    0x0000000000002e13       0xfc rewind99.o
 .debug_line    0x0000000000002f0f      0x100 wheren99.o
 .debug_line    0x000000000000300f      0x273 /gpfs/hps/emc/global/noscrub/Boi.Vuong/lib/graphics/v2.0.0/intel/libgph_v2.0.0_8.a(bin2ch.o)
 .debug_line    0x0000000000003282       0x9d /gpfs/hps/emc/global/noscrub/Boi.Vuong/lib/graphics/v2.0.0/intel/libgph_v2.0.0_8.a(cdc2asc.o)
 .debug_line    0x000000000000331f      0x709 /gpfs/hps/emc/global/noscrub/Boi.Vuong/lib/graphics/v2.0.0/intel/libgph_v2.0.0_8.a(consol.o)
 .debug_line    0x0000000000003a28       0xbd /gpfs/hps/emc/global/noscrub/Boi.Vuong/lib/graphics/v2.0.0/intel/libgph_v2.0.0_8.a(xasc2asc.o)
 .debug_line    0x0000000000003ae5      0x14f /gpfs/hps/emc/global/noscrub/Boi.Vuong/lib/graphics/v2.0.0/intel/libutil_v2.0.0.a(sbytesccs.o)
 .debug_line    0x0000000000003c34      0x171 /gpfs/hps/emc/global/noscrub/Boi.Vuong/lib/graphics/v2.0.0/intel/libutil_v2.0.0.a(swap_bytes_in_place.o)
 .debug_line    0x0000000000003da5       0x5e /gpfs/hps/nco/ops/nwprod/lib/w3emc/v2.2.0/intel/libw3emc_v2.2.0_8.a(mova2i.o)
 .debug_line    0x0000000000003e03       0x52 /gpfs/hps/nco/ops/nwprod/lib/w3nco/v2.0.6/intel/libw3nco_v2.0.6_8.a(errexit.o)
 .debug_line    0x0000000000003e55       0xed /gpfs/hps/nco/ops/nwprod/lib/w3nco/v2.0.6/intel/libw3nco_v2.0.6_8.a(gbytes.o)
 .debug_line    0x0000000000003f42      0x1cf /gpfs/hps/nco/ops/nwprod/lib/w3nco/v2.0.6/intel/libw3nco_v2.0.6_8.a(w3as00.o)
 .debug_line    0x0000000000004111       0x4e /gpfs/hps/nco/ops/nwprod/lib/w3nco/v2.0.6/intel/libw3nco_v2.0.6_8.a(w3fi01.o)
 .debug_line    0x000000000000415f       0x57 /gpfs/hps/nco/ops/nwprod/lib/w3nco/v2.0.6/intel/libw3nco_v2.0.6_8.a(w3locdat.o)
 .debug_line    0x00000000000041b6      0x148 /gpfs/hps/nco/ops/nwprod/lib/w3nco/v2.0.6/intel/libw3nco_v2.0.6_8.a(w3tagb.o)
 .debug_line    0x00000000000042fe       0xa1 /gpfs/hps/nco/ops/nwprod/lib/w3nco/v2.0.6/intel/libw3nco_v2.0.6_8.a(w3utcdat.o)
 .debug_line    0x000000000000439f       0x65 /gpfs/hps/nco/ops/nwprod/lib/w3nco/v2.0.6/intel/libw3nco_v2.0.6_8.a(xmovex.o)
 .debug_line    0x0000000000004404     0x157c /gpfs/hps/nco/ops/nwprod/lib/w3nco/v2.0.6/intel/libw3nco_v2.0.6_8.a(summary.o)
 .debug_line    0x0000000000005980       0x99 /gpfs/hps/nco/ops/nwprod/lib/w3nco/v2.0.6/intel/libw3nco_v2.0.6_8.a(iw3jdn.o)
 .debug_line    0x0000000000005a19       0x5d /gpfs/hps/nco/ops/nwprod/lib/w3nco/v2.0.6/intel/libw3nco_v2.0.6_8.a(w3doxdat.o)
 .debug_line    0x0000000000005a76       0x93 /gpfs/hps/nco/ops/nwprod/lib/w3nco/v2.0.6/intel/libw3nco_v2.0.6_8.a(w3fs26.o)
 .debug_line    0x0000000000005b09       0x96 /usr/lib64/libc_nonshared.a(elf-init.oS)

.debug_frame    0x0000000000000000     0x15b0
 *(.debug_frame)
 .debug_frame   0x0000000000000000      0x100 fxcompoz.o
 .debug_frame   0x0000000000000100       0x48 close99.o
 .debug_frame   0x0000000000000148      0x4e8 fxcompozlib.o
 .debug_frame   0x0000000000000630       0xa8 open99.o
 .debug_frame   0x00000000000006d8       0x70 rd1byt99.o
 .debug_frame   0x0000000000000748       0x50 reposi99.o
 .debug_frame   0x0000000000000798       0x40 rewind99.o
 .debug_frame   0x00000000000007d8       0x50 wheren99.o
 .debug_frame   0x0000000000000828       0x60 /gpfs/hps/emc/global/noscrub/Boi.Vuong/lib/graphics/v2.0.0/intel/libgph_v2.0.0_8.a(bin2ch.o)
 .debug_frame   0x0000000000000888       0x60 /gpfs/hps/emc/global/noscrub/Boi.Vuong/lib/graphics/v2.0.0/intel/libgph_v2.0.0_8.a(cdc2asc.o)
 .debug_frame   0x00000000000008e8       0xf0 /gpfs/hps/emc/global/noscrub/Boi.Vuong/lib/graphics/v2.0.0/intel/libgph_v2.0.0_8.a(consol.o)
 .debug_frame   0x00000000000009d8       0x60 /gpfs/hps/emc/global/noscrub/Boi.Vuong/lib/graphics/v2.0.0/intel/libgph_v2.0.0_8.a(xasc2asc.o)
 .debug_frame   0x0000000000000a38       0x60 /gpfs/hps/emc/global/noscrub/Boi.Vuong/lib/graphics/v2.0.0/intel/libutil_v2.0.0.a(sbytesccs.o)
 .debug_frame   0x0000000000000a98       0x58 /gpfs/hps/emc/global/noscrub/Boi.Vuong/lib/graphics/v2.0.0/intel/libutil_v2.0.0.a(swap_bytes_in_place.o)
 .debug_frame   0x0000000000000af0       0x48 /gpfs/hps/nco/ops/nwprod/lib/w3emc/v2.2.0/intel/libw3emc_v2.2.0_8.a(mova2i.o)
 .debug_frame   0x0000000000000b38       0x38 /gpfs/hps/nco/ops/nwprod/lib/w3nco/v2.0.6/intel/libw3nco_v2.0.6_8.a(errexit.o)
 .debug_frame   0x0000000000000b70       0x80 /gpfs/hps/nco/ops/nwprod/lib/w3nco/v2.0.6/intel/libw3nco_v2.0.6_8.a(gbytes.o)
 .debug_frame   0x0000000000000bf0      0x188 /gpfs/hps/nco/ops/nwprod/lib/w3nco/v2.0.6/intel/libw3nco_v2.0.6_8.a(w3as00.o)
 .debug_frame   0x0000000000000d78       0x30 /gpfs/hps/nco/ops/nwprod/lib/w3nco/v2.0.6/intel/libw3nco_v2.0.6_8.a(w3fi01.o)
 .debug_frame   0x0000000000000da8       0x50 /gpfs/hps/nco/ops/nwprod/lib/w3nco/v2.0.6/intel/libw3nco_v2.0.6_8.a(w3locdat.o)
 .debug_frame   0x0000000000000df8      0x108 /gpfs/hps/nco/ops/nwprod/lib/w3nco/v2.0.6/intel/libw3nco_v2.0.6_8.a(w3tagb.o)
 .debug_frame   0x0000000000000f00       0xa0 /gpfs/hps/nco/ops/nwprod/lib/w3nco/v2.0.6/intel/libw3nco_v2.0.6_8.a(w3utcdat.o)
 .debug_frame   0x0000000000000fa0       0x30 /gpfs/hps/nco/ops/nwprod/lib/w3nco/v2.0.6/intel/libw3nco_v2.0.6_8.a(xmovex.o)
 .debug_frame   0x0000000000000fd0      0x4a8 /gpfs/hps/nco/ops/nwprod/lib/w3nco/v2.0.6/intel/libw3nco_v2.0.6_8.a(summary.o)
 .debug_frame   0x0000000000001478       0x30 /gpfs/hps/nco/ops/nwprod/lib/w3nco/v2.0.6/intel/libw3nco_v2.0.6_8.a(iw3jdn.o)
 .debug_frame   0x00000000000014a8       0x58 /gpfs/hps/nco/ops/nwprod/lib/w3nco/v2.0.6/intel/libw3nco_v2.0.6_8.a(w3doxdat.o)
 .debug_frame   0x0000000000001500       0x58 /gpfs/hps/nco/ops/nwprod/lib/w3nco/v2.0.6/intel/libw3nco_v2.0.6_8.a(w3fs26.o)
 .debug_frame   0x0000000000001558       0x58 /usr/lib64/libc_nonshared.a(elf-init.oS)

.debug_str      0x0000000000000000     0x3692
 *(.debug_str)
 .debug_str     0x0000000000000000       0xab /usr/lib/../lib64/crt1.o
                                         0xd0 (size before relaxing)
 .debug_str     0x00000000000000ab      0x5f0 fxcompoz.o
                                        0x60b (size before relaxing)
 .debug_str     0x000000000000069b      0x264 close99.o
                                        0x2c8 (size before relaxing)
 .debug_str     0x00000000000008ff      0xb28 fxcompozlib.o
                                        0xe3f (size before relaxing)
 .debug_str     0x0000000000001427       0x41 open99.o
                                        0x2f5 (size before relaxing)
 .debug_str     0x0000000000001468       0x2d rd1byt99.o
                                        0x2f8 (size before relaxing)
 .debug_str     0x0000000000001495       0x27 reposi99.o
                                        0x2ef (size before relaxing)
 .debug_str     0x00000000000014bc       0x1d rewind99.o
                                        0x2cf (size before relaxing)
 .debug_str     0x00000000000014d9       0x1e wheren99.o
                                        0x2dc (size before relaxing)
 .debug_str     0x00000000000014f7      0x211 /gpfs/hps/emc/global/noscrub/Boi.Vuong/lib/graphics/v2.0.0/intel/libgph_v2.0.0_8.a(bin2ch.o)
                                        0x2ad (size before relaxing)
 .debug_str     0x0000000000001708       0xaf /gpfs/hps/emc/global/noscrub/Boi.Vuong/lib/graphics/v2.0.0/intel/libgph_v2.0.0_8.a(cdc2asc.o)
                                        0x216 (size before relaxing)
 .debug_str     0x00000000000017b7      0x34f /gpfs/hps/emc/global/noscrub/Boi.Vuong/lib/graphics/v2.0.0/intel/libgph_v2.0.0_8.a(consol.o)
                                        0x4d6 (size before relaxing)
 .debug_str     0x0000000000001b06       0xa6 /gpfs/hps/emc/global/noscrub/Boi.Vuong/lib/graphics/v2.0.0/intel/libgph_v2.0.0_8.a(xasc2asc.o)
                                        0x217 (size before relaxing)
 .debug_str     0x0000000000001bac      0x165 /gpfs/hps/emc/global/noscrub/Boi.Vuong/lib/graphics/v2.0.0/intel/libutil_v2.0.0.a(sbytesccs.o)
                                        0x1ea (size before relaxing)
 .debug_str     0x0000000000001d11       0x8f /gpfs/hps/emc/global/noscrub/Boi.Vuong/lib/graphics/v2.0.0/intel/libutil_v2.0.0.a(swap_bytes_in_place.o)
                                        0x2fe (size before relaxing)
 .debug_str     0x0000000000001da0      0x39d /gpfs/hps/nco/ops/nwprod/lib/w3emc/v2.2.0/intel/libw3emc_v2.2.0_8.a(mova2i.o)
                                        0x41d (size before relaxing)
 .debug_str     0x000000000000213d      0x320 /gpfs/hps/nco/ops/nwprod/lib/w3nco/v2.0.6/intel/libw3nco_v2.0.6_8.a(errexit.o)
                                        0x3ab (size before relaxing)
 .debug_str     0x000000000000245d       0x16 /gpfs/hps/nco/ops/nwprod/lib/w3nco/v2.0.6/intel/libw3nco_v2.0.6_8.a(gbytes.o)
                                        0x402 (size before relaxing)
 .debug_str     0x0000000000002473       0x9b /gpfs/hps/nco/ops/nwprod/lib/w3nco/v2.0.6/intel/libw3nco_v2.0.6_8.a(w3as00.o)
                                        0x4c3 (size before relaxing)
 .debug_str     0x000000000000250e       0x10 /gpfs/hps/nco/ops/nwprod/lib/w3nco/v2.0.6/intel/libw3nco_v2.0.6_8.a(w3fi01.o)
                                        0x394 (size before relaxing)
 .debug_str     0x000000000000251e       0x47 /gpfs/hps/nco/ops/nwprod/lib/w3nco/v2.0.6/intel/libw3nco_v2.0.6_8.a(w3locdat.o)
                                        0x3d0 (size before relaxing)
 .debug_str     0x0000000000002565       0x8d /gpfs/hps/nco/ops/nwprod/lib/w3nco/v2.0.6/intel/libw3nco_v2.0.6_8.a(w3tagb.o)
                                        0x416 (size before relaxing)
 .debug_str     0x00000000000025f2       0x29 /gpfs/hps/nco/ops/nwprod/lib/w3nco/v2.0.6/intel/libw3nco_v2.0.6_8.a(w3utcdat.o)
                                        0x3e5 (size before relaxing)
 .debug_str     0x000000000000261b       0x49 /gpfs/hps/nco/ops/nwprod/lib/w3nco/v2.0.6/intel/libw3nco_v2.0.6_8.a(xmovex.o)
                                        0x3cd (size before relaxing)
 .debug_str     0x0000000000002664      0xfa1 /gpfs/hps/nco/ops/nwprod/lib/w3nco/v2.0.6/intel/libw3nco_v2.0.6_8.a(summary.o)
                                       0x11fd (size before relaxing)
 .debug_str     0x0000000000003605       0x10 /gpfs/hps/nco/ops/nwprod/lib/w3nco/v2.0.6/intel/libw3nco_v2.0.6_8.a(iw3jdn.o)
                                        0x3a5 (size before relaxing)
 .debug_str     0x0000000000003615       0x14 /gpfs/hps/nco/ops/nwprod/lib/w3nco/v2.0.6/intel/libw3nco_v2.0.6_8.a(w3doxdat.o)
                                        0x3ac (size before relaxing)
 .debug_str     0x0000000000003629       0x10 /gpfs/hps/nco/ops/nwprod/lib/w3nco/v2.0.6/intel/libw3nco_v2.0.6_8.a(w3fs26.o)
                                        0x3ba (size before relaxing)
 .debug_str     0x0000000000003639       0x59 /usr/lib64/libc_nonshared.a(elf-init.oS)
                                         0xe0 (size before relaxing)

.debug_loc      0x0000000000000000       0xfe
 *(.debug_loc)
 .debug_loc     0x0000000000000000       0xfe /usr/lib64/libc_nonshared.a(elf-init.oS)

.debug_macinfo
 *(.debug_macinfo)

.debug_weaknames
 *(.debug_weaknames)

.debug_funcnames
 *(.debug_funcnames)

.debug_typenames
 *(.debug_typenames)

.debug_varnames
 *(.debug_varnames)

.debug_pubtypes
 *(.debug_pubtypes)

.debug_ranges   0x0000000000000000      0x950
 *(.debug_ranges)
 .debug_ranges  0x0000000000000000      0x590 fxcompozlib.o
 .debug_ranges  0x0000000000000590       0x60 /gpfs/hps/nco/ops/nwprod/lib/w3nco/v2.0.6/intel/libw3nco_v2.0.6_8.a(w3as00.o)
 .debug_ranges  0x00000000000005f0      0x310 /gpfs/hps/nco/ops/nwprod/lib/w3nco/v2.0.6/intel/libw3nco_v2.0.6_8.a(summary.o)
 .debug_ranges  0x0000000000000900       0x50 /usr/lib64/libc_nonshared.a(elf-init.oS)

.debug_macro
 *(.debug_macro)

.gnu.attributes
 *(.gnu.attributes)

/DISCARD/
 *(.note.GNU-stack)
 *(.gnu_debuglink)
 *(.gnu.lto_*)
OUTPUT(fxcompoz elf64-x86-64)

.debug_opt_report
                0x0000000000000000     0x1bc9
 .debug_opt_report
                0x0000000000000000      0x5be fxcompoz.o
 .debug_opt_report
                0x00000000000005be      0xc02 fxcompozlib.o
 .debug_opt_report
                0x00000000000011c0      0x1a2 /gpfs/hps/emc/global/noscrub/Boi.Vuong/lib/graphics/v2.0.0/intel/libgph_v2.0.0_8.a(bin2ch.o)
 .debug_opt_report
                0x0000000000001362       0x92 /gpfs/hps/emc/global/noscrub/Boi.Vuong/lib/graphics/v2.0.0/intel/libgph_v2.0.0_8.a(cdc2asc.o)
 .debug_opt_report
                0x00000000000013f4      0x1be /gpfs/hps/emc/global/noscrub/Boi.Vuong/lib/graphics/v2.0.0/intel/libgph_v2.0.0_8.a(consol.o)
 .debug_opt_report
                0x00000000000015b2       0x92 /gpfs/hps/emc/global/noscrub/Boi.Vuong/lib/graphics/v2.0.0/intel/libgph_v2.0.0_8.a(xasc2asc.o)
 .debug_opt_report
                0x0000000000001644       0xb0 /gpfs/hps/emc/global/noscrub/Boi.Vuong/lib/graphics/v2.0.0/intel/libutil_v2.0.0.a(sbytesccs.o)
 .debug_opt_report
                0x00000000000016f4       0xce /gpfs/hps/emc/global/noscrub/Boi.Vuong/lib/graphics/v2.0.0/intel/libutil_v2.0.0.a(swap_bytes_in_place.o)
 .debug_opt_report
                0x00000000000017c2       0xb1 /gpfs/hps/nco/ops/nwprod/lib/w3emc/v2.2.0/intel/libw3emc_v2.2.0_8.a(mova2i.o)
 .debug_opt_report
                0x0000000000001873       0xb0 /gpfs/hps/nco/ops/nwprod/lib/w3nco/v2.0.6/intel/libw3nco_v2.0.6_8.a(gbytes.o)
 .debug_opt_report
                0x0000000000001923      0x128 /gpfs/hps/nco/ops/nwprod/lib/w3nco/v2.0.6/intel/libw3nco_v2.0.6_8.a(w3as00.o)
 .debug_opt_report
                0x0000000000001a4b       0xec /gpfs/hps/nco/ops/nwprod/lib/w3nco/v2.0.6/intel/libw3nco_v2.0.6_8.a(xmovex.o)
 .debug_opt_report
                0x0000000000001b37       0x92 /gpfs/hps/nco/ops/nwprod/lib/w3nco/v2.0.6/intel/libw3nco_v2.0.6_8.a(summary.o)
